

Microchip MPLAB XC8 Assembler V2.45 build 20230818022343 
                                                                                               Sat Sep 30 19:01:21 2023

Microchip MPLAB XC8 C Compiler v2.45 (Free license) build 20230818022343 Og1 
     1                           	processor	18F4620
     2                           	fnconf	rparam,??,?,0
     3                           	pagewidth 120
     4                           	opt	flic
     5                           	psect	idataCOMRAM,global,class=CODE,delta=1,noexec
     6                           	psect	idataBANK0,global,class=CODE,delta=1,noexec
     7                           	psect	smallconst,global,reloc=2,class=SMALLCONST,delta=1,noexec
     8                           	psect	cinit,global,reloc=2,class=CODE,delta=1
     9                           	psect	bssCOMRAM,global,class=COMRAM,space=1,delta=1,lowdata,noexec
    10                           	psect	dataCOMRAM,global,class=COMRAM,space=1,delta=1,lowdata,noexec
    11                           	psect	bssBANK0,global,class=BANK0,space=1,delta=1,lowdata,noexec
    12                           	psect	dataBANK0,global,class=BANK0,space=1,delta=1,lowdata,noexec
    13                           	psect	cstackCOMRAM,global,class=COMRAM,space=1,delta=1,lowdata,noexec
    14                           	psect	text0,global,reloc=2,class=CODE,delta=1
    15                           	psect	text1,global,reloc=2,class=CODE,delta=1
    16                           	psect	text2,global,reloc=2,class=CODE,delta=1
    17                           	psect	text3,global,reloc=2,class=CODE,delta=1
    18                           	psect	text4,global,reloc=2,class=CODE,delta=1
    19                           	psect	text5,global,reloc=2,class=CODE,delta=1
    20                           	psect	text6,global,reloc=2,class=CODE,delta=1
    21                           	psect	text7,global,reloc=2,class=CODE,delta=1
    22                           	psect	text8,global,reloc=2,class=CODE,delta=1
    23                           	psect	text9,global,reloc=2,class=CODE,delta=1
    24                           	psect	text10,global,reloc=2,class=CODE,delta=1
    25                           	psect	text11,global,reloc=2,class=CODE,delta=1,group=1
    26                           	psect	text12,global,reloc=2,class=CODE,delta=1,group=1
    27                           	psect	text13,global,reloc=2,class=CODE,delta=1
    28                           	psect	text14,global,reloc=2,class=CODE,delta=1
    29                           	psect	text15,global,reloc=2,class=CODE,delta=1
    30                           	psect	text16,global,reloc=2,class=CODE,delta=1
    31                           	psect	text17,global,reloc=2,class=CODE,delta=1
    32                           	psect	text18,global,reloc=2,class=CODE,delta=1
    33                           	psect	text19,global,reloc=2,class=CODE,delta=1
    34                           	psect	intcode,global,reloc=2,class=CODE,delta=1
    35                           	psect	intcode_body,global,reloc=2,class=CODE,delta=1
    36                           	psect	text21,global,reloc=2,class=CODE,delta=1
    37                           	psect	text22,global,reloc=2,class=CODE,delta=1
    38                           	psect	text23,global,reloc=2,class=CODE,delta=1
    39                           	psect	text24,global,reloc=2,class=CODE,delta=1
    40                           	psect	text25,global,reloc=2,class=CODE,delta=1
    41                           	psect	text26,global,reloc=2,class=CODE,delta=1
    42                           	psect	text27,global,reloc=2,class=CODE,delta=1
    43                           	psect	intsave_regs,global,class=BIGRAM,space=1,delta=1,noexec
    44                           	psect	rparam,global,class=COMRAM,space=1,delta=1,noexec
    45                           	psect	temp,global,ovrld,common,class=COMRAM,space=1,delta=1
    46                           	psect	config,global,abs,ovrld,class=CONFIG,space=4,delta=1,noexec
    47   000000                     
    48                           ; Generated 23/03/2023 GMT
    49                           ; 
    50                           ; Copyright © 2023, Microchip Technology Inc. and its subsidiaries ("Microchip")
    51                           ; All rights reserved.
    52                           ; 
    53                           ; This software is developed by Microchip Technology Inc. and its subsidiaries ("Microch
      +                          ip").
    54                           ; 
    55                           ; Redistribution and use in source and binary forms, with or without modification, are
    56                           ; permitted provided that the following conditions are met:
    57                           ; 
    58                           ;     1. Redistributions of source code must retain the above copyright notice, this lis
      +                          t of
    59                           ;        conditions and the following disclaimer.
    60                           ; 
    61                           ;     2. Redistributions in binary form must reproduce the above copyright notice, this 
      +                          list
    62                           ;        of conditions and the following disclaimer in the documentation and/or other
    63                           ;        materials provided with the distribution. Publication is not required when
    64                           ;        this file is used in an embedded application.
    65                           ; 
    66                           ;     3. Microchip's name may not be used to endorse or promote products derived from th
      +                          is
    67                           ;        software without specific prior written permission.
    68                           ; 
    69                           ; THIS SOFTWARE IS PROVIDED BY MICROCHIP "AS IS" AND ANY EXPRESS OR IMPLIED WARRANTIES,
    70                           ; INCLUDING, BUT NOT LIMITED TO, THE IMPLIED WARRANTIES OF MERCHANTABILITY AND FITNESS F
      +                          OR
    71                           ; PURPOSE ARE DISCLAIMED.  IN NO EVENT SHALL MICROCHIP BE LIABLE FOR ANY DIRECT, INDIREC
      +                          T,
    72                           ; INCIDENTAL, SPECIAL, EXEMPLARY, OR CONSEQUENTIAL DAMAGES (INCLUDING BUT NOT LIMITED TO
    73                           ; PROCUREMENT OF SUBSTITUTE GOODS OR SERVICES; LOSS OF USE, DATA OR PROFITS; OR BUSINESS
    74                           ; INTERRUPTION) HOWSOEVER CAUSED AND ON ANY THEORY OF LIABILITY, WHETHER IN CONTRACT, ST
      +                          RICT
    75                           ; LIABILITY, OR TORT (INCLUDING NEGLIGENCE OR OTHERWISE) ARISING IN ANY WAY OUT OF THE U
      +                          SE OF
    76                           ; THIS SOFTWARE, EVEN IF ADVISED OF THE POSSIBILITY OF SUCH DAMAGE.
    77                           ; 
    78                           ; 
    79                           ; Code-generator required, PIC18F4620 Definitions
    80                           ; 
    81                           ; SFR Addresses
    82   000000                     
    83                           	psect	idataCOMRAM
    84   002238                     __pidataCOMRAM:
    85                           	callstack 0
    86                           
    87                           ;initializer for _LAT_REG
    88   002238  89                 	db	137
    89   002239  0F                 	db	15
    90   00223A  8A                 	db	138
    91   00223B  0F                 	db	15
    92   00223C  8B                 	db	139
    93   00223D  0F                 	db	15
    94   00223E  8C                 	db	140
    95   00223F  0F                 	db	15
    96   002240  8D                 	db	141
    97   002241  0F                 	db	15
    98                           
    99                           ;initializer for _TRIS_REG
   100   002242  92                 	db	146
   101   002243  0F                 	db	15
   102   002244  93                 	db	147
   103   002245  0F                 	db	15
   104   002246  94                 	db	148
   105   002247  0F                 	db	15
   106   002248  95                 	db	149
   107   002249  0F                 	db	15
   108   00224A  96                 	db	150
   109   00224B  0F                 	db	15
   110                           
   111                           ;initializer for _RB7_flag
   112   00224C  01                 	db	1
   113                           
   114                           ;initializer for _RB6_flag
   115   00224D  01                 	db	1
   116                           
   117                           ;initializer for _RB5_flag
   118   00224E  01                 	db	1
   119                           
   120                           ;initializer for _RB4_flag
   121   00224F  01                 	db	1
   122                           
   123                           ;initializer for _lcd
   124   002250  31                 	db	49
   125   002251  39                 	db	57
   126   002252  03                 	db	3
   127   002253  0B                 	db	11
   128   002254  13                 	db	19
   129   002255  1B                 	db	27
   130   002256  23                 	db	35
   131   002257  2B                 	db	43
   132   002258  33                 	db	51
   133   002259  3B                 	db	59
   134                           
   135                           	psect	idataBANK0
   136   0022E2                     __pidataBANK0:
   137                           	callstack 0
   138                           
   139                           ;initializer for _PORT_REG
   140   0022E2  80                 	db	128
   141   0022E3  0F                 	db	15
   142   0022E4  81                 	db	129
   143   0022E5  0F                 	db	15
   144   0022E6  82                 	db	130
   145   0022E7  0F                 	db	15
   146   0022E8  83                 	db	131
   147   0022E9  0F                 	db	15
   148   0022EA  84                 	db	132
   149   0022EB  0F                 	db	15
   150                           
   151                           ;initializer for _keypad
   152   0022EC  02                 	db	2
   153   0022ED  0A                 	db	10
   154   0022EE  12                 	db	18
   155   0022EF  1A                 	db	26
   156   0022F0  62                 	db	98
   157   0022F1  6A                 	db	106
   158   0022F2  72                 	db	114
   159   0022F3  7A                 	db	122
   160                           
   161                           	psect	smallconst
   162   001000                     __psmallconst:
   163                           	callstack 0
   164   001000  00                 	db	0
   165   001001                     _Keypad_Elements:
   166                           	callstack 0
   167   001001  07                 	db	7
   168   001002  08                 	db	8
   169   001003  09                 	db	9
   170   001004  2F                 	db	47
   171   001005  04                 	db	4
   172   001006  05                 	db	5
   173   001007  06                 	db	6
   174   001008  2A                 	db	42
   175   001009  01                 	db	1
   176   00100A  02                 	db	2
   177   00100B  03                 	db	3
   178   00100C  2D                 	db	45
   179   00100D  43                 	db	67
   180   00100E  00                 	db	0
   181   00100F  3D                 	db	61
   182   001010  2B                 	db	43
   183   001011                     __end_of_Keypad_Elements:
   184                           	callstack 0
   185   000000                     _INTCON2bits	set	4081
   186   000000                     _EECON2	set	4007
   187   000000                     _ADCON1bits	set	4033
   188   000000                     _ADRESL	set	4035
   189   000000                     _ADRESH	set	4036
   190   000000                     _TRISD	set	3989
   191   000000                     _TRISC	set	3988
   192   000000                     _TRISB	set	3987
   193   000000                     _TRISE	set	3990
   194   000000                     _PORTBbits	set	3969
   195   000000                     _ADCON2bits	set	4032
   196   000000                     _ADCON0bits	set	4034
   197   000000                     _LATA	set	3977
   198   000000                     _PORTE	set	3972
   199   000000                     _PORTD	set	3971
   200   000000                     _PORTC	set	3970
   201   000000                     _PORTB	set	3969
   202   000000                     _PORTA	set	3968
   203   000000                     _TRISA	set	3986
   204   000000                     _INTCON3bits	set	4080
   205   000000                     _INTCONbits	set	4082
   206   000000                     _EECON1bits	set	4006
   207   000000                     _EEDATA	set	4008
   208   000000                     _EEADR	set	4009
   209   000000                     _EEADRH	set	4010
   210   000000                     _LATE	set	3981
   211   000000                     _LATD	set	3980
   212   000000                     _LATC	set	3979
   213   000000                     _LATB	set	3978
   214   001011                     STR_4:
   215   001011  53                 	db	83	;'S'
   216   001012  79                 	db	121	;'y'
   217   001013  6E                 	db	110	;'n'
   218   001014  74                 	db	116	;'t'
   219   001015  61                 	db	97	;'a'
   220   001016  78                 	db	120	;'x'
   221   001017  20                 	db	32
   222   001018  45                 	db	69	;'E'
   223   001019  72                 	db	114	;'r'
   224   00101A  72                 	db	114	;'r'
   225   00101B  6F                 	db	111	;'o'
   226   00101C  72                 	db	114	;'r'
   227   00101D  21                 	db	33
   228   00101E  00                 	db	0
   229   00101F                     STR_1:
   230   00101F  25                 	db	37
   231   001020  69                 	db	105	;'i'
   232   001021  00                 	db	0
   233   001022  00                 	db	0	; dummy byte at the end
   234   000000                     
   235                           ; #config settings
   236                           
   237                           	psect	cinit
   238   0020D4                     __pcinit:
   239                           	callstack 0
   240   0020D4                     start_initialization:
   241                           	callstack 0
   242   0020D4                     __initialization:
   243                           	callstack 0
   244                           
   245                           ; Initialize objects allocated to BANK0 (18 bytes)
   246                           ; load TBLPTR registers with __pidataBANK0
   247   0020D4  0EE2               	movlw	low __pidataBANK0
   248   0020D6  6EF6               	movwf	tblptrl,c
   249   0020D8  0E22               	movlw	high __pidataBANK0
   250   0020DA  6EF7               	movwf	tblptrh,c
   251   0020DC  0E00               	movlw	low (__pidataBANK0 shr (0+16))
   252   0020DE  6EF8               	movwf	tblptru,c
   253   0020E0  EE00  F080         	lfsr	0,__pdataBANK0
   254   0020E4  EE10 F012          	lfsr	1,18
   255   0020E8                     copy_data0:
   256   0020E8  0009               	tblrd		*+
   257   0020EA  CFF5 FFEE          	movff	tablat,postinc0
   258   0020EE  50E5               	movf	postdec1,w,c
   259   0020F0  50E1               	movf	fsr1l,w,c
   260   0020F2  E1FA               	bnz	copy_data0
   261                           
   262                           ; Initialize objects allocated to COMRAM (34 bytes)
   263                           ; load TBLPTR registers with __pidataCOMRAM
   264   0020F4  0E38               	movlw	low __pidataCOMRAM
   265   0020F6  6EF6               	movwf	tblptrl,c
   266   0020F8  0E22               	movlw	high __pidataCOMRAM
   267   0020FA  6EF7               	movwf	tblptrh,c
   268   0020FC  0E00               	movlw	low (__pidataCOMRAM shr (0+16))
   269   0020FE  6EF8               	movwf	tblptru,c
   270   002100  EE00  F059         	lfsr	0,__pdataCOMRAM
   271   002104  EE10 F022          	lfsr	1,34
   272   002108                     copy_data1:
   273   002108  0009               	tblrd		*+
   274   00210A  CFF5 FFEE          	movff	tablat,postinc0
   275   00210E  50E5               	movf	postdec1,w,c
   276   002110  50E1               	movf	fsr1l,w,c
   277   002112  E1FA               	bnz	copy_data1
   278                           
   279                           ; Clear objects allocated to BANK0 (6 bytes)
   280   002114  0100               	movlb	0
   281   002116  6B97               	clrf	(__pbssBANK0+5)& (0+255),b
   282   002118  6B96               	clrf	(__pbssBANK0+4)& (0+255),b
   283   00211A  6B95               	clrf	(__pbssBANK0+3)& (0+255),b
   284   00211C  6B94               	clrf	(__pbssBANK0+2)& (0+255),b
   285   00211E  6B93               	clrf	(__pbssBANK0+1)& (0+255),b
   286   002120  6B92               	clrf	__pbssBANK0& (0+255),b
   287                           
   288                           ; Clear objects allocated to COMRAM (40 bytes)
   289   002122  EE00  F031         	lfsr	0,__pbssCOMRAM
   290   002126  0E28               	movlw	40
   291   002128                     clear_0:
   292   002128  6AEE               	clrf	postinc0,c
   293   00212A  06E8               	decf	wreg,f,c
   294   00212C  E1FD               	bnz	clear_0
   295   00212E                     end_of_initialization:
   296                           	callstack 0
   297   00212E                     __end_of__initialization:
   298                           	callstack 0
   299   00212E  907B               	bcf	int$flags,0,c	;clear compiler interrupt flag (level 1)
   300   002130  927B               	bcf	int$flags,1,c	;clear compiler interrupt flag (level 2)
   301   002132  0100               	movlb	0
   302   002134  EF2D  F011         	goto	_main	;jump to C main() function
   303                           
   304                           	psect	bssCOMRAM
   305   000031                     __pbssCOMRAM:
   306                           	callstack 0
   307   000031                     _RB7_InterruptHandler_LOW:
   308                           	callstack 0
   309   000031                     	ds	2
   310   000033                     _RB7_InterruptHandler_HIGH:
   311                           	callstack 0
   312   000033                     	ds	2
   313   000035                     _RB6_InterruptHandler_LOW:
   314                           	callstack 0
   315   000035                     	ds	2
   316   000037                     _RB6_InterruptHandler_HIGH:
   317                           	callstack 0
   318   000037                     	ds	2
   319   000039                     _RB5_InterruptHandler_LOW:
   320                           	callstack 0
   321   000039                     	ds	2
   322   00003B                     _RB5_InterruptHandler_HIGH:
   323                           	callstack 0
   324   00003B                     	ds	2
   325   00003D                     _RB4_InterruptHandler_LOW:
   326                           	callstack 0
   327   00003D                     	ds	2
   328   00003F                     _RB4_InterruptHandler_HIGH:
   329                           	callstack 0
   330   00003F                     	ds	2
   331   000041                     _INT2_InterruptHandler:
   332                           	callstack 0
   333   000041                     	ds	2
   334   000043                     _INT1_InterruptHandler:
   335                           	callstack 0
   336   000043                     	ds	2
   337   000045                     _INT0_InterruptHandler:
   338                           	callstack 0
   339   000045                     	ds	2
   340   000047                     _operator:
   341                           	callstack 0
   342   000047                     	ds	1
   343   000048                     _count:
   344                           	callstack 0
   345   000048                     	ds	1
   346   000049                     RELAY_Toggle@F2752:
   347                           	callstack 0
   348   000049                     	ds	1
   349   00004A                     RELAY_Turn_OFF@F2747:
   350                           	callstack 0
   351   00004A                     	ds	1
   352   00004B                     RELAY_Turn_ON@F2742:
   353                           	callstack 0
   354   00004B                     	ds	1
   355   00004C                     RELAY_Init@F2737:
   356                           	callstack 0
   357   00004C                     	ds	1
   358   00004D                     LED_Toggle@F2752:
   359                           	callstack 0
   360   00004D                     	ds	1
   361   00004E                     LED_Turn_Off@F2747:
   362                           	callstack 0
   363   00004E                     	ds	1
   364   00004F                     LED_Turn_On@F2742:
   365                           	callstack 0
   366   00004F                     	ds	1
   367   000050                     LED_Init@F2737:
   368                           	callstack 0
   369   000050                     	ds	1
   370   000051                     	ds	1
   371   000052                     	ds	1
   372   000053                     _second_num:
   373                           	callstack 0
   374   000053                     	ds	3
   375   000056                     _first_num:
   376                           	callstack 0
   377   000056                     	ds	3
   378                           
   379                           	psect	dataCOMRAM
   380   000059                     __pdataCOMRAM:
   381                           	callstack 0
   382   000059                     _LAT_REG:
   383                           	callstack 0
   384   000059                     	ds	10
   385   000063                     _TRIS_REG:
   386                           	callstack 0
   387   000063                     	ds	10
   388   00006D                     _RB7_flag:
   389                           	callstack 0
   390   00006D                     	ds	1
   391   00006E                     _RB6_flag:
   392                           	callstack 0
   393   00006E                     	ds	1
   394   00006F                     _RB5_flag:
   395                           	callstack 0
   396   00006F                     	ds	1
   397   000070                     _RB4_flag:
   398                           	callstack 0
   399   000070                     	ds	1
   400   000071                     _lcd:
   401                           	callstack 0
   402   000071                     	ds	10
   403                           
   404                           	psect	bssBANK0
   405   000092                     __pbssBANK0:
   406                           	callstack 0
   407   000092                     	ds	6
   408                           
   409                           	psect	dataBANK0
   410   000080                     __pdataBANK0:
   411                           	callstack 0
   412   000080                     _PORT_REG:
   413                           	callstack 0
   414   000080                     	ds	10
   415   00008A                     _keypad:
   416                           	callstack 0
   417   00008A                     	ds	8
   418                           
   419                           	psect	cstackCOMRAM
   420   000001                     __pcstackCOMRAM:
   421                           	callstack 0
   422   000001                     RB4_ISR@level:
   423                           	callstack 0
   424   000001                     RB5_ISR@level:
   425                           	callstack 0
   426   000001                     RB6_ISR@level:
   427                           	callstack 0
   428   000001                     RB7_ISR@level:
   429                           	callstack 0
   430                           
   431                           ; 1 bytes @ 0x0
   432   000001                     	ds	1
   433   000002                     ?___lldiv:
   434                           	callstack 0
   435   000002                     ?___llmod:
   436                           	callstack 0
   437   000002                     GPIO_PIN_Direction_Init@_pin_config:
   438                           	callstack 0
   439   000002                     GPIO_PIN_Write_Logic@_pin_config:
   440                           	callstack 0
   441   000002                     GPIO_PIN_Read_Logic@_pin_config:
   442                           	callstack 0
   443   000002                     ___lldiv@dividend:
   444                           	callstack 0
   445   000002                     ___llmod@dividend:
   446                           	callstack 0
   447                           
   448                           ; 4 bytes @ 0x1
   449   000002                     	ds	1
   450   000003                     ??_GPIO_PIN_Direction_Init:
   451   000003                     GPIO_PIN_Write_Logic@logic_status:
   452                           	callstack 0
   453   000003                     GPIO_PIN_Read_Logic@logic_status:
   454                           	callstack 0
   455                           
   456                           ; 1 bytes @ 0x2
   457   000003                     	ds	1
   458   000004                     ??_GPIO_PIN_Write_Logic:
   459   000004                     ??_GPIO_PIN_Read_Logic:
   460                           
   461                           ; 1 bytes @ 0x3
   462   000004                     	ds	2
   463   000006                     ___lldiv@divisor:
   464                           	callstack 0
   465   000006                     ___llmod@divisor:
   466                           	callstack 0
   467                           
   468                           ; 4 bytes @ 0x5
   469   000006                     	ds	2
   470   000008                     GPIO_PIN_Direction_Init@RET:
   471                           	callstack 0
   472   000008                     GPIO_PIN_Read_Logic@RET:
   473                           	callstack 0
   474                           
   475                           ; 1 bytes @ 0x7
   476   000008                     	ds	1
   477   000009                     GPIO_PIN_Write_Logic@RET:
   478                           	callstack 0
   479                           
   480                           ; 1 bytes @ 0x8
   481   000009                     	ds	1
   482   00000A                     KEYPAD_Get_Number@keypad:
   483                           	callstack 0
   484   00000A                     LCD_4BITS_Send_Data@lcd:
   485                           	callstack 0
   486   00000A                     LCD_4BITS_Send_ENABLE@lcd:
   487                           	callstack 0
   488   00000A                     LCD_8BITS_Send_ENABLE@lcd:
   489                           	callstack 0
   490   00000A                     GPIO_PIN_Init@_pin_config:
   491                           	callstack 0
   492   00000A                     ___llmod@counter:
   493                           	callstack 0
   494   00000A                     ___lldiv@quotient:
   495                           	callstack 0
   496                           
   497                           ; 4 bytes @ 0x9
   498   00000A                     	ds	1
   499   00000B                     ??_GPIO_PIN_Init:
   500   00000B                     KEYPAD_Get_Number@number:
   501                           	callstack 0
   502   00000B                     LCD_4BITS_Send_Data@command:
   503                           	callstack 0
   504   00000B                     LCD_4BITS_Send_ENABLE@RET:
   505                           	callstack 0
   506   00000B                     LCD_8BITS_Send_ENABLE@RET:
   507                           	callstack 0
   508                           
   509                           ; 1 bytes @ 0xA
   510   00000B                     	ds	1
   511   00000C                     ??_KEYPAD_Get_Number:
   512   00000C                     LCD_8BITS_Send_Command@lcd:
   513                           	callstack 0
   514   00000C                     LCD_8BITS_Send_Char@lcd:
   515                           	callstack 0
   516   00000C                     LCD_4BITS_Send_Data@RET:
   517                           	callstack 0
   518   00000C                     GPIO_PIN_Init@RET:
   519                           	callstack 0
   520                           
   521                           ; 1 bytes @ 0xB
   522   00000C                     	ds	1
   523   00000D                     KEYPAD_Init@keypad:
   524                           	callstack 0
   525   00000D                     KEYPAD_Get_Number@RET:
   526                           	callstack 0
   527   00000D                     LCD_4BITS_Send_Command@lcd:
   528                           	callstack 0
   529   00000D                     LCD_8BITS_Send_Command@command:
   530                           	callstack 0
   531   00000D                     LCD_8BITS_Send_Char@data:
   532                           	callstack 0
   533                           
   534                           ; 1 bytes @ 0xC
   535   00000D                     	ds	1
   536   00000E                     ??_LCD_8BITS_Send_Command:
   537   00000E                     ??_LCD_8BITS_Send_Char:
   538   00000E                     KEYPAD_Init@RET:
   539                           	callstack 0
   540   00000E                     KEYPAD_Get_Number@logic:
   541                           	callstack 0
   542   00000E                     LCD_4BITS_Send_Command@command:
   543                           	callstack 0
   544   00000E                     ___lldiv@counter:
   545                           	callstack 0
   546                           
   547                           ; 1 bytes @ 0xD
   548   00000E                     	ds	1
   549   00000F                     KEYPAD_Init@row_counter:
   550                           	callstack 0
   551   00000F                     KEYPAD_Get_Number@counter:
   552                           	callstack 0
   553   00000F                     LCD_4BITS_Send_Command@RET:
   554                           	callstack 0
   555                           
   556                           ; 1 bytes @ 0xE
   557   00000F                     	ds	1
   558   000010                     KEYPAD_Init@column_counter:
   559                           	callstack 0
   560   000010                     KEYPAD_Get_Number@row_counter:
   561                           	callstack 0
   562   000010                     LCD_8BITS_Send_Command@RET:
   563                           	callstack 0
   564   000010                     LCD_8BITS_Send_Char@RET:
   565                           	callstack 0
   566                           
   567                           ; 1 bytes @ 0xF
   568   000010                     	ds	1
   569   000011                     KEYPAD_Get_Number@column_counter:
   570                           	callstack 0
   571   000011                     LCD_8BITS_Send_Command@counter:
   572                           	callstack 0
   573   000011                     LCD_8BITS_Send_Char@counter:
   574                           	callstack 0
   575                           
   576                           ; 1 bytes @ 0x10
   577   000011                     	ds	1
   578   000012                     LCD_8BITS_Init@lcd:
   579                           	callstack 0
   580   000012                     LCD_8BITS_Send_String@lcd:
   581                           	callstack 0
   582                           
   583                           ; 1 bytes @ 0x11
   584   000012                     	ds	1
   585   000013                     ??_LCD_8BITS_Init:
   586   000013                     LCD_8BITS_Send_String@string:
   587                           	callstack 0
   588                           
   589                           ; 2 bytes @ 0x12
   590   000013                     	ds	1
   591   000014                     LCD_8BITS_Init@counter:
   592                           	callstack 0
   593                           
   594                           ; 1 bytes @ 0x13
   595   000014                     	ds	1
   596   000015                     LCD_8BITS_Init@RET:
   597                           	callstack 0
   598   000015                     LCD_8BITS_Send_String@RET:
   599                           	callstack 0
   600                           
   601                           ; 1 bytes @ 0x14
   602   000015                     	ds	1
   603   000016                     LCD_8BITS_Send_Number@lcd:
   604                           	callstack 0
   605                           
   606                           ; 1 bytes @ 0x15
   607   000016                     	ds	1
   608   000017                     LCD_8BITS_Send_Number@number:
   609                           	callstack 0
   610                           
   611                           ; 4 bytes @ 0x16
   612   000017                     	ds	4
   613   00001B                     LCD_8BITS_Send_Number@str:
   614                           	callstack 0
   615                           
   616                           ; 10 bytes @ 0x1A
   617   00001B                     	ds	10
   618   000025                     LCD_8BITS_Send_Number@rem:
   619                           	callstack 0
   620                           
   621                           ; 1 bytes @ 0x24
   622   000025                     	ds	1
   623   000026                     LCD_8BITS_Send_Number@RET:
   624                           	callstack 0
   625                           
   626                           ; 1 bytes @ 0x25
   627   000026                     	ds	1
   628   000027                     LCD_8BITS_Send_Number@n:
   629                           	callstack 0
   630                           
   631                           ; 4 bytes @ 0x26
   632   000027                     	ds	4
   633   00002B                     LCD_8BITS_Send_Number@i:
   634                           	callstack 0
   635                           
   636                           ; 1 bytes @ 0x2A
   637   00002B                     	ds	1
   638   00002C                     LCD_8BITS_Send_Number@len:
   639                           	callstack 0
   640                           
   641                           ; 1 bytes @ 0x2B
   642   00002C                     	ds	1
   643   00002D                     ??_Get_First_Number:
   644                           
   645                           ; 1 bytes @ 0x2C
   646   00002D                     	ds	2
   647   00002F                     ??_Get_Second_Number:
   648                           
   649                           ; 1 bytes @ 0x2E
   650   00002F                     	ds	2
   651   000031                     
   652                           ; 1 bytes @ 0x30
   653 ;;
   654 ;;Main: autosize = 0, tempsize = 0, incstack = 0, save=0
   655 ;;
   656 ;; *************** function _main *****************
   657 ;; Defined at:
   658 ;;		line 54 in file "Application.c"
   659 ;; Parameters:    Size  Location     Type
   660 ;;		None
   661 ;; Auto vars:     Size  Location     Type
   662 ;;  ret             1    0        unsigned char 
   663 ;; Return value:  Size  Location     Type
   664 ;;                  2  936[None  ] int 
   665 ;; Registers used:
   666 ;;		wreg, fsr0l, fsr0h, fsr1l, fsr1h, fsr2l, fsr2h, status,2, status,0, tblptrl, tblptrh, tblptru, prodl, prodh, cstack
   667 ;; Tracked objects:
   668 ;;		On entry : 0/0
   669 ;;		On exit  : 0/0
   670 ;;		Unchanged: 0/0
   671 ;; Data sizes:     COMRAM   BANK0   BANK1   BANK2   BANK3   BANK4   BANK5   BANK6   BANK7   BANK8   BANK9  BANK10  BANK1
      +1  BANK12  BANK13  BANK14  BANK15
   672 ;;      Params:         0       0       0       0       0       0       0       0       0       0       0       0       
      +0       0       0       0       0
   673 ;;      Locals:         0       0       0       0       0       0       0       0       0       0       0       0       
      +0       0       0       0       0
   674 ;;      Temps:          0       0       0       0       0       0       0       0       0       0       0       0       
      +0       0       0       0       0
   675 ;;      Totals:         0       0       0       0       0       0       0       0       0       0       0       0       
      +0       0       0       0       0
   676 ;;Total ram usage:        0 bytes
   677 ;; Hardware stack levels required when called: 9
   678 ;; This function calls:
   679 ;;		_Get_First_Number
   680 ;;		_Get_Second_Number
   681 ;;		_KEYPAD_Init
   682 ;;		_LCD_8BITS_Init
   683 ;; This function is called by:
   684 ;;		Startup code after reset
   685 ;; This function uses a non-reentrant model
   686 ;;
   687                           
   688                           	psect	text0
   689   00225A                     __ptext0:
   690                           	callstack 0
   691   00225A                     _main:
   692                           	callstack 22
   693   00225A  0E71               	movlw	low _lcd
   694   00225C  6E12               	movwf	LCD_8BITS_Init@lcd^0,c
   695   00225E  ECDE  F00D         	call	_LCD_8BITS_Init	;wreg free
   696   002262  0E8A               	movlw	low _keypad
   697   002264  6E0D               	movwf	KEYPAD_Init@keypad^0,c
   698   002266  EC36  F010         	call	_KEYPAD_Init	;wreg free
   699   00226A                     
   700                           ;Application.c: 58:     Get_First_Number();
   701   00226A  EC12  F008         	call	_Get_First_Number	;wreg free
   702   00226E                     
   703                           ;Application.c: 59:     Get_Second_Number();
   704   00226E  ECAF  F00A         	call	_Get_Second_Number	;wreg free
   705   002272                     l937:
   706   002272  EF39  F011         	goto	l937
   707   002276  EF07  F000         	goto	start
   708   00227A                     __end_of_main:
   709                           	callstack 0
   710                           
   711 ;; *************** function _LCD_8BITS_Init *****************
   712 ;; Defined at:
   713 ;;		line 156 in file "ECU_Layer/LCD/LCD.c"
   714 ;; Parameters:    Size  Location     Type
   715 ;;  lcd             1   17[COMRAM] PTR const struct .
   716 ;;		 -> lcd(10), 
   717 ;; Auto vars:     Size  Location     Type
   718 ;;  RET             1   20[COMRAM] unsigned char 
   719 ;;  counter         1   19[COMRAM] unsigned char 
   720 ;; Return value:  Size  Location     Type
   721 ;;                  1    wreg      unsigned char 
   722 ;; Registers used:
   723 ;;		wreg, fsr2l, fsr2h, status,2, status,0, prodl, prodh, cstack
   724 ;; Tracked objects:
   725 ;;		On entry : 0/0
   726 ;;		On exit  : 0/0
   727 ;;		Unchanged: 0/0
   728 ;; Data sizes:     COMRAM   BANK0   BANK1   BANK2   BANK3   BANK4   BANK5   BANK6   BANK7   BANK8   BANK9  BANK10  BANK1
      +1  BANK12  BANK13  BANK14  BANK15
   729 ;;      Params:         1       0       0       0       0       0       0       0       0       0       0       0       
      +0       0       0       0       0
   730 ;;      Locals:         2       0       0       0       0       0       0       0       0       0       0       0       
      +0       0       0       0       0
   731 ;;      Temps:          1       0       0       0       0       0       0       0       0       0       0       0       
      +0       0       0       0       0
   732 ;;      Totals:         4       0       0       0       0       0       0       0       0       0       0       0       
      +0       0       0       0       0
   733 ;;Total ram usage:        4 bytes
   734 ;; Hardware stack levels used: 1
   735 ;; Hardware stack levels required when called: 5
   736 ;; This function calls:
   737 ;;		_GPIO_PIN_Init
   738 ;;		_LCD_4BITS_Send_Command
   739 ;;		_LCD_8BITS_Send_Command
   740 ;; This function is called by:
   741 ;;		_main
   742 ;; This function uses a non-reentrant model
   743 ;;
   744                           
   745                           	psect	text1
   746   001BBC                     __ptext1:
   747                           	callstack 0
   748   001BBC                     _LCD_8BITS_Init:
   749                           	callstack 25
   750   001BBC                     
   751                           ;ECU_Layer/LCD/LCD.c: 158:     uint8 counter=0;
   752   001BBC  0E00               	movlw	0
   753   001BBE  6E14               	movwf	LCD_8BITS_Init@counter^0,c
   754                           
   755                           ;ECU_Layer/LCD/LCD.c: 159:     if ( ((void*)0) == lcd ){
   756   001BC0  5012               	movf	LCD_8BITS_Init@lcd^0,w,c
   757   001BC2  A4D8               	btfss	status,2,c
   758   001BC4  EFE6  F00D         	goto	u3041
   759   001BC8  EFE8  F00D         	goto	u3040
   760   001BCC                     u3041:
   761   001BCC  EFEC  F00D         	goto	l3949
   762   001BD0                     u3040:
   763   001BD0                     
   764                           ;ECU_Layer/LCD/LCD.c: 160:         RET = (Std_ReturnType)0x00;
   765   001BD0  0E00               	movlw	0
   766   001BD2  6E15               	movwf	LCD_8BITS_Init@RET^0,c
   767                           
   768                           ;ECU_Layer/LCD/LCD.c: 161:     }
   769   001BD4  EF49  F00E         	goto	l3983
   770   001BD8                     l3949:
   771                           
   772                           ;ECU_Layer/LCD/LCD.c: 163:         RET = GPIO_PIN_Init (&(lcd->En));
   773   001BD8  2812               	incf	LCD_8BITS_Init@lcd^0,w,c
   774   001BDA  6E0A               	movwf	GPIO_PIN_Init@_pin_config^0,c
   775   001BDC  EC83  F00F         	call	_GPIO_PIN_Init	;wreg free
   776   001BE0  6E15               	movwf	LCD_8BITS_Init@RET^0,c
   777                           
   778                           ;ECU_Layer/LCD/LCD.c: 164:         RET = GPIO_PIN_Init (&(lcd->RS));
   779   001BE2  C012  F00A         	movff	LCD_8BITS_Init@lcd,GPIO_PIN_Init@_pin_config
   780   001BE6  EC83  F00F         	call	_GPIO_PIN_Init	;wreg free
   781   001BEA  6E15               	movwf	LCD_8BITS_Init@RET^0,c
   782   001BEC                     
   783                           ;ECU_Layer/LCD/LCD.c: 165:         for (counter=0 ; counter < 8 ; counter++){
   784   001BEC  0E00               	movlw	0
   785   001BEE  6E14               	movwf	LCD_8BITS_Init@counter^0,c
   786   001BF0                     l3957:
   787   001BF0  5012               	movf	LCD_8BITS_Init@lcd^0,w,c
   788   001BF2  2414               	addwf	LCD_8BITS_Init@counter^0,w,c
   789   001BF4  0F02               	addlw	2
   790   001BF6  6E0A               	movwf	GPIO_PIN_Init@_pin_config^0,c
   791   001BF8  EC83  F00F         	call	_GPIO_PIN_Init	;wreg free
   792   001BFC                     
   793                           ;ECU_Layer/LCD/LCD.c: 167:         }
   794   001BFC  2A14               	incf	LCD_8BITS_Init@counter^0,f,c
   795   001BFE  0E07               	movlw	7
   796   001C00  6414               	cpfsgt	LCD_8BITS_Init@counter^0,c
   797   001C02  EF05  F00E         	goto	u3051
   798   001C06  EF07  F00E         	goto	u3050
   799   001C0A                     u3051:
   800   001C0A  EFF8  F00D         	goto	l3957
   801   001C0E                     u3050:
   802   001C0E                     
   803                           ;ECU_Layer/LCD/LCD.c: 168:         _delay((unsigned long)((20)*(8000000UL/4000.0)));
   804   001C0E  0E34               	movlw	52
   805   001C10  6E13               	movwf	??_LCD_8BITS_Init^0,c
   806   001C12  0EF2               	movlw	242
   807   001C14                     u3667:
   808   001C14  2EE8               	decfsz	wreg,f,c
   809   001C16  D7FE               	bra	u3667
   810   001C18  2E13               	decfsz	??_LCD_8BITS_Init^0,f,c
   811   001C1A  D7FC               	bra	u3667
   812   001C1C  C012  F00D         	movff	LCD_8BITS_Init@lcd,LCD_4BITS_Send_Command@lcd
   813   001C20  0E38               	movlw	56
   814   001C22  6E0E               	movwf	LCD_4BITS_Send_Command@command^0,c
   815   001C24  EC9C  F010         	call	_LCD_4BITS_Send_Command	;wreg free
   816   001C28                     
   817                           ;ECU_Layer/LCD/LCD.c: 170:         _delay((unsigned long)((5)*(8000000UL/4000.0)));
   818   001C28  0E0D               	movlw	13
   819   001C2A  6E13               	movwf	??_LCD_8BITS_Init^0,c
   820   001C2C  0EFC               	movlw	252
   821   001C2E                     u3677:
   822   001C2E  2EE8               	decfsz	wreg,f,c
   823   001C30  D7FE               	bra	u3677
   824   001C32  2E13               	decfsz	??_LCD_8BITS_Init^0,f,c
   825   001C34  D7FC               	bra	u3677
   826   001C36  C012  F00D         	movff	LCD_8BITS_Init@lcd,LCD_4BITS_Send_Command@lcd
   827   001C3A  0E38               	movlw	56
   828   001C3C  6E0E               	movwf	LCD_4BITS_Send_Command@command^0,c
   829   001C3E  EC9C  F010         	call	_LCD_4BITS_Send_Command	;wreg free
   830   001C42                     
   831                           ;ECU_Layer/LCD/LCD.c: 172:         _delay((unsigned long)((150)*(8000000UL/4000000.0)));
   832   001C42  0E64               	movlw	100
   833   001C44                     u3687:
   834   001C44  2EE8               	decfsz	wreg,f,c
   835   001C46  D7FE               	bra	u3687
   836   001C48  C012  F00C         	movff	LCD_8BITS_Init@lcd,LCD_8BITS_Send_Command@lcd
   837   001C4C  0E01               	movlw	1
   838   001C4E  6E0D               	movwf	LCD_8BITS_Send_Command@command^0,c
   839   001C50  ECFB  F00F         	call	_LCD_8BITS_Send_Command	;wreg free
   840   001C54  C012  F00C         	movff	LCD_8BITS_Init@lcd,LCD_8BITS_Send_Command@lcd
   841   001C58  0E02               	movlw	2
   842   001C5A  6E0D               	movwf	LCD_8BITS_Send_Command@command^0,c
   843   001C5C  ECFB  F00F         	call	_LCD_8BITS_Send_Command	;wreg free
   844   001C60  C012  F00C         	movff	LCD_8BITS_Init@lcd,LCD_8BITS_Send_Command@lcd
   845   001C64  0E06               	movlw	6
   846   001C66  6E0D               	movwf	LCD_8BITS_Send_Command@command^0,c
   847   001C68  ECFB  F00F         	call	_LCD_8BITS_Send_Command	;wreg free
   848   001C6C  C012  F00C         	movff	LCD_8BITS_Init@lcd,LCD_8BITS_Send_Command@lcd
   849   001C70  0E0C               	movlw	12
   850   001C72  6E0D               	movwf	LCD_8BITS_Send_Command@command^0,c
   851   001C74  ECFB  F00F         	call	_LCD_8BITS_Send_Command	;wreg free
   852   001C78  C012  F00C         	movff	LCD_8BITS_Init@lcd,LCD_8BITS_Send_Command@lcd
   853   001C7C  0E38               	movlw	56
   854   001C7E  6E0D               	movwf	LCD_8BITS_Send_Command@command^0,c
   855   001C80  ECFB  F00F         	call	_LCD_8BITS_Send_Command	;wreg free
   856   001C84                     
   857                           ;ECU_Layer/LCD/LCD.c: 178:         RET = LCD_8BITS_Send_Command((lcd) , 0x80);
   858   001C84  C012  F00C         	movff	LCD_8BITS_Init@lcd,LCD_8BITS_Send_Command@lcd
   859   001C88  0E80               	movlw	128
   860   001C8A  6E0D               	movwf	LCD_8BITS_Send_Command@command^0,c
   861   001C8C  ECFB  F00F         	call	_LCD_8BITS_Send_Command	;wreg free
   862   001C90  6E15               	movwf	LCD_8BITS_Init@RET^0,c
   863   001C92                     l3983:
   864                           
   865                           ;ECU_Layer/LCD/LCD.c: 180:     return RET;
   866   001C92  5015               	movf	LCD_8BITS_Init@RET^0,w,c
   867   001C94  0012               	return		;funcret
   868   001C96                     __end_of_LCD_8BITS_Init:
   869                           	callstack 0
   870                           
   871 ;; *************** function _LCD_4BITS_Send_Command *****************
   872 ;; Defined at:
   873 ;;		line 39 in file "ECU_Layer/LCD/LCD.c"
   874 ;; Parameters:    Size  Location     Type
   875 ;;  lcd             1   12[COMRAM] PTR const struct .
   876 ;;		 -> lcd(10), 
   877 ;;  command         1   13[COMRAM] unsigned char 
   878 ;; Auto vars:     Size  Location     Type
   879 ;;  RET             1   14[COMRAM] unsigned char 
   880 ;; Return value:  Size  Location     Type
   881 ;;                  1    wreg      unsigned char 
   882 ;; Registers used:
   883 ;;		wreg, fsr2l, fsr2h, status,2, status,0, prodl, prodh, cstack
   884 ;; Tracked objects:
   885 ;;		On entry : 0/0
   886 ;;		On exit  : 0/0
   887 ;;		Unchanged: 0/0
   888 ;; Data sizes:     COMRAM   BANK0   BANK1   BANK2   BANK3   BANK4   BANK5   BANK6   BANK7   BANK8   BANK9  BANK10  BANK1
      +1  BANK12  BANK13  BANK14  BANK15
   889 ;;      Params:         2       0       0       0       0       0       0       0       0       0       0       0       
      +0       0       0       0       0
   890 ;;      Locals:         1       0       0       0       0       0       0       0       0       0       0       0       
      +0       0       0       0       0
   891 ;;      Temps:          0       0       0       0       0       0       0       0       0       0       0       0       
      +0       0       0       0       0
   892 ;;      Totals:         3       0       0       0       0       0       0       0       0       0       0       0       
      +0       0       0       0       0
   893 ;;Total ram usage:        3 bytes
   894 ;; Hardware stack levels used: 1
   895 ;; Hardware stack levels required when called: 4
   896 ;; This function calls:
   897 ;;		_GPIO_PIN_Write_Logic
   898 ;;		_LCD_4BITS_Send_Data
   899 ;;		_LCD_4BITS_Send_ENABLE
   900 ;; This function is called by:
   901 ;;		_LCD_8BITS_Init
   902 ;;		_LCD_4BITS_Init
   903 ;;		_LCD_4BITS_Send_Spcial_Char
   904 ;;		_LCD_4BITS_Set_CURSOR
   905 ;; This function uses a non-reentrant model
   906 ;;
   907                           
   908                           	psect	text2
   909   002138                     __ptext2:
   910                           	callstack 0
   911   002138                     _LCD_4BITS_Send_Command:
   912                           	callstack 25
   913   002138                     
   914                           ;ECU_Layer/LCD/LCD.c: 41:     if ( ((void*)0) == lcd ){
   915   002138  500D               	movf	LCD_4BITS_Send_Command@lcd^0,w,c
   916   00213A  A4D8               	btfss	status,2,c
   917   00213C  EFA2  F010         	goto	u2801
   918   002140  EFA4  F010         	goto	u2800
   919   002144                     u2801:
   920   002144  EFA8  F010         	goto	l3783
   921   002148                     u2800:
   922   002148                     
   923                           ;ECU_Layer/LCD/LCD.c: 42:         RET = (Std_ReturnType)0x00;
   924   002148  0E00               	movlw	0
   925   00214A  6E0F               	movwf	LCD_4BITS_Send_Command@RET^0,c
   926                           
   927                           ;ECU_Layer/LCD/LCD.c: 43:     }
   928   00214C  EFC8  F010         	goto	l3785
   929   002150                     l3783:
   930                           
   931                           ;ECU_Layer/LCD/LCD.c: 45:         RET = GPIO_PIN_Write_Logic(&(lcd->RS) , LOW);
   932   002150  C00D  F002         	movff	LCD_4BITS_Send_Command@lcd,GPIO_PIN_Write_Logic@_pin_config
   933   002154  0E00               	movlw	0
   934   002156  6E03               	movwf	GPIO_PIN_Write_Logic@logic_status^0,c
   935   002158  ECAB  F00B         	call	_GPIO_PIN_Write_Logic	;wreg free
   936   00215C  6E0F               	movwf	LCD_4BITS_Send_Command@RET^0,c
   937                           
   938                           ;ECU_Layer/LCD/LCD.c: 46:         RET = LCD_4BITS_Send_Data ((lcd) , command>>4);
   939   00215E  C00D  F00A         	movff	LCD_4BITS_Send_Command@lcd,LCD_4BITS_Send_Data@lcd
   940   002162  380E               	swapf	LCD_4BITS_Send_Command@command^0,w,c
   941   002164  0B0F               	andlw	15
   942   002166  6E0B               	movwf	LCD_4BITS_Send_Data@command^0,c
   943   002168  ECCA  F010         	call	_LCD_4BITS_Send_Data	;wreg free
   944   00216C  6E0F               	movwf	LCD_4BITS_Send_Command@RET^0,c
   945                           
   946                           ;ECU_Layer/LCD/LCD.c: 47:         RET = LCD_4BITS_Send_ENABLE ((lcd));
   947   00216E  C00D  F00A         	movff	LCD_4BITS_Send_Command@lcd,LCD_4BITS_Send_ENABLE@lcd
   948   002172  ECF2  F010         	call	_LCD_4BITS_Send_ENABLE	;wreg free
   949   002176  6E0F               	movwf	LCD_4BITS_Send_Command@RET^0,c
   950                           
   951                           ;ECU_Layer/LCD/LCD.c: 48:         RET = LCD_4BITS_Send_Data ((lcd) , command);
   952   002178  C00D  F00A         	movff	LCD_4BITS_Send_Command@lcd,LCD_4BITS_Send_Data@lcd
   953   00217C  C00E  F00B         	movff	LCD_4BITS_Send_Command@command,LCD_4BITS_Send_Data@command
   954   002180  ECCA  F010         	call	_LCD_4BITS_Send_Data	;wreg free
   955   002184  6E0F               	movwf	LCD_4BITS_Send_Command@RET^0,c
   956                           
   957                           ;ECU_Layer/LCD/LCD.c: 49:         RET = LCD_4BITS_Send_ENABLE ((lcd));
   958   002186  C00D  F00A         	movff	LCD_4BITS_Send_Command@lcd,LCD_4BITS_Send_ENABLE@lcd
   959   00218A  ECF2  F010         	call	_LCD_4BITS_Send_ENABLE	;wreg free
   960   00218E  6E0F               	movwf	LCD_4BITS_Send_Command@RET^0,c
   961   002190                     l3785:
   962                           
   963                           ;ECU_Layer/LCD/LCD.c: 51:     return RET;
   964   002190  500F               	movf	LCD_4BITS_Send_Command@RET^0,w,c
   965   002192  0012               	return		;funcret
   966   002194                     __end_of_LCD_4BITS_Send_Command:
   967                           	callstack 0
   968                           
   969 ;; *************** function _LCD_4BITS_Send_ENABLE *****************
   970 ;; Defined at:
   971 ;;		line 349 in file "ECU_Layer/LCD/LCD.c"
   972 ;; Parameters:    Size  Location     Type
   973 ;;  lcd             1    9[COMRAM] PTR const struct .
   974 ;;		 -> lcd(10), 
   975 ;; Auto vars:     Size  Location     Type
   976 ;;  RET             1   10[COMRAM] unsigned char 
   977 ;; Return value:  Size  Location     Type
   978 ;;                  1    wreg      unsigned char 
   979 ;; Registers used:
   980 ;;		wreg, fsr2l, fsr2h, status,2, status,0, prodl, prodh, cstack
   981 ;; Tracked objects:
   982 ;;		On entry : 0/0
   983 ;;		On exit  : 0/0
   984 ;;		Unchanged: 0/0
   985 ;; Data sizes:     COMRAM   BANK0   BANK1   BANK2   BANK3   BANK4   BANK5   BANK6   BANK7   BANK8   BANK9  BANK10  BANK1
      +1  BANK12  BANK13  BANK14  BANK15
   986 ;;      Params:         1       0       0       0       0       0       0       0       0       0       0       0       
      +0       0       0       0       0
   987 ;;      Locals:         1       0       0       0       0       0       0       0       0       0       0       0       
      +0       0       0       0       0
   988 ;;      Temps:          0       0       0       0       0       0       0       0       0       0       0       0       
      +0       0       0       0       0
   989 ;;      Totals:         2       0       0       0       0       0       0       0       0       0       0       0       
      +0       0       0       0       0
   990 ;;Total ram usage:        2 bytes
   991 ;; Hardware stack levels used: 1
   992 ;; Hardware stack levels required when called: 3
   993 ;; This function calls:
   994 ;;		_GPIO_PIN_Write_Logic
   995 ;; This function is called by:
   996 ;;		_LCD_4BITS_Send_Command
   997 ;;		_LCD_4BITS_Send_Char
   998 ;; This function uses a non-reentrant model
   999 ;;
  1000                           
  1001                           	psect	text3
  1002   0021E4                     __ptext3:
  1003                           	callstack 0
  1004   0021E4                     _LCD_4BITS_Send_ENABLE:
  1005                           	callstack 25
  1006   0021E4  280A               	incf	LCD_4BITS_Send_ENABLE@lcd^0,w,c
  1007   0021E6  6E02               	movwf	GPIO_PIN_Write_Logic@_pin_config^0,c
  1008   0021E8  0E01               	movlw	1
  1009   0021EA  6E03               	movwf	GPIO_PIN_Write_Logic@logic_status^0,c
  1010   0021EC  ECAB  F00B         	call	_GPIO_PIN_Write_Logic	;wreg free
  1011   0021F0                     
  1012                           ;ECU_Layer/LCD/LCD.c: 352:     _delay((unsigned long)((5)*(8000000UL/4000000.0)));
  1013   0021F0  0E03               	movlw	3
  1014   0021F2                     u3697:
  1015   0021F2  2EE8               	decfsz	wreg,f,c
  1016   0021F4  D7FE               	bra	u3697
  1017   0021F6  0000               	nop	
  1018   0021F8                     
  1019                           ;ECU_Layer/LCD/LCD.c: 353:     RET = GPIO_PIN_Write_Logic(&(lcd->En) , LOW);
  1020   0021F8  280A               	incf	LCD_4BITS_Send_ENABLE@lcd^0,w,c
  1021   0021FA  6E02               	movwf	GPIO_PIN_Write_Logic@_pin_config^0,c
  1022   0021FC  0E00               	movlw	0
  1023   0021FE  6E03               	movwf	GPIO_PIN_Write_Logic@logic_status^0,c
  1024   002200  ECAB  F00B         	call	_GPIO_PIN_Write_Logic	;wreg free
  1025   002204  6E0B               	movwf	LCD_4BITS_Send_ENABLE@RET^0,c
  1026   002206                     
  1027                           ;ECU_Layer/LCD/LCD.c: 354:     _delay((unsigned long)((5)*(8000000UL/4000000.0)));
  1028   002206  0E03               	movlw	3
  1029   002208                     u3707:
  1030   002208  2EE8               	decfsz	wreg,f,c
  1031   00220A  D7FE               	bra	u3707
  1032   00220C  0000               	nop	
  1033                           
  1034                           ;ECU_Layer/LCD/LCD.c: 355:     return RET;
  1035   00220E  500B               	movf	LCD_4BITS_Send_ENABLE@RET^0,w,c
  1036   002210  0012               	return		;funcret
  1037   002212                     __end_of_LCD_4BITS_Send_ENABLE:
  1038                           	callstack 0
  1039                           
  1040 ;; *************** function _LCD_4BITS_Send_Data *****************
  1041 ;; Defined at:
  1042 ;;		line 340 in file "ECU_Layer/LCD/LCD.c"
  1043 ;; Parameters:    Size  Location     Type
  1044 ;;  lcd             1    9[COMRAM] PTR const struct .
  1045 ;;		 -> lcd(10), 
  1046 ;;  command         1   10[COMRAM] unsigned char 
  1047 ;; Auto vars:     Size  Location     Type
  1048 ;;  RET             1   11[COMRAM] unsigned char 
  1049 ;; Return value:  Size  Location     Type
  1050 ;;                  1    wreg      unsigned char 
  1051 ;; Registers used:
  1052 ;;		wreg, fsr2l, fsr2h, status,2, status,0, prodl, prodh, cstack
  1053 ;; Tracked objects:
  1054 ;;		On entry : 0/0
  1055 ;;		On exit  : 0/0
  1056 ;;		Unchanged: 0/0
  1057 ;; Data sizes:     COMRAM   BANK0   BANK1   BANK2   BANK3   BANK4   BANK5   BANK6   BANK7   BANK8   BANK9  BANK10  BANK1
      +1  BANK12  BANK13  BANK14  BANK15
  1058 ;;      Params:         2       0       0       0       0       0       0       0       0       0       0       0       
      +0       0       0       0       0
  1059 ;;      Locals:         1       0       0       0       0       0       0       0       0       0       0       0       
      +0       0       0       0       0
  1060 ;;      Temps:          0       0       0       0       0       0       0       0       0       0       0       0       
      +0       0       0       0       0
  1061 ;;      Totals:         3       0       0       0       0       0       0       0       0       0       0       0       
      +0       0       0       0       0
  1062 ;;Total ram usage:        3 bytes
  1063 ;; Hardware stack levels used: 1
  1064 ;; Hardware stack levels required when called: 3
  1065 ;; This function calls:
  1066 ;;		_GPIO_PIN_Write_Logic
  1067 ;; This function is called by:
  1068 ;;		_LCD_4BITS_Send_Command
  1069 ;;		_LCD_4BITS_Send_Char
  1070 ;; This function uses a non-reentrant model
  1071 ;;
  1072                           
  1073                           	psect	text4
  1074   002194                     __ptext4:
  1075                           	callstack 0
  1076   002194                     _LCD_4BITS_Send_Data:
  1077                           	callstack 25
  1078   002194  500A               	movf	LCD_4BITS_Send_Data@lcd^0,w,c
  1079   002196  0F02               	addlw	2
  1080   002198  6E02               	movwf	GPIO_PIN_Write_Logic@_pin_config^0,c
  1081   00219A  500B               	movf	LCD_4BITS_Send_Data@command^0,w,c
  1082   00219C  0B01               	andlw	1
  1083   00219E  6E03               	movwf	GPIO_PIN_Write_Logic@logic_status^0,c
  1084   0021A0  ECAB  F00B         	call	_GPIO_PIN_Write_Logic	;wreg free
  1085   0021A4  500A               	movf	LCD_4BITS_Send_Data@lcd^0,w,c
  1086   0021A6  0F03               	addlw	3
  1087   0021A8  6E02               	movwf	GPIO_PIN_Write_Logic@_pin_config^0,c
  1088   0021AA  90D8               	bcf	status,0,c
  1089   0021AC  300B               	rrcf	LCD_4BITS_Send_Data@command^0,w,c
  1090   0021AE  0B01               	andlw	1
  1091   0021B0  6E03               	movwf	GPIO_PIN_Write_Logic@logic_status^0,c
  1092   0021B2  ECAB  F00B         	call	_GPIO_PIN_Write_Logic	;wreg free
  1093   0021B6  500A               	movf	LCD_4BITS_Send_Data@lcd^0,w,c
  1094   0021B8  0F04               	addlw	4
  1095   0021BA  6E02               	movwf	GPIO_PIN_Write_Logic@_pin_config^0,c
  1096   0021BC  400B               	rrncf	LCD_4BITS_Send_Data@command^0,w,c
  1097   0021BE  42E8               	rrncf	wreg,f,c
  1098   0021C0  0B3F               	andlw	63
  1099   0021C2  0B01               	andlw	1
  1100   0021C4  6E03               	movwf	GPIO_PIN_Write_Logic@logic_status^0,c
  1101   0021C6  ECAB  F00B         	call	_GPIO_PIN_Write_Logic	;wreg free
  1102   0021CA                     
  1103                           ;ECU_Layer/LCD/LCD.c: 345:     RET = GPIO_PIN_Write_Logic ( &(lcd->data_pins[3]) , (comm
      +                          and >> 3) & (uint8)0x01);
  1104   0021CA  500A               	movf	LCD_4BITS_Send_Data@lcd^0,w,c
  1105   0021CC  0F05               	addlw	5
  1106   0021CE  6E02               	movwf	GPIO_PIN_Write_Logic@_pin_config^0,c
  1107   0021D0  380B               	swapf	LCD_4BITS_Send_Data@command^0,w,c
  1108   0021D2  46E8               	rlncf	wreg,f,c
  1109   0021D4  0B1F               	andlw	31
  1110   0021D6  0B01               	andlw	1
  1111   0021D8  6E03               	movwf	GPIO_PIN_Write_Logic@logic_status^0,c
  1112   0021DA  ECAB  F00B         	call	_GPIO_PIN_Write_Logic	;wreg free
  1113   0021DE  6E0C               	movwf	LCD_4BITS_Send_Data@RET^0,c
  1114                           
  1115                           ;ECU_Layer/LCD/LCD.c: 346:     return RET;
  1116   0021E0  500C               	movf	LCD_4BITS_Send_Data@RET^0,w,c
  1117   0021E2  0012               	return		;funcret
  1118   0021E4                     __end_of_LCD_4BITS_Send_Data:
  1119                           	callstack 0
  1120                           
  1121 ;; *************** function _KEYPAD_Init *****************
  1122 ;; Defined at:
  1123 ;;		line 13 in file "ECU_Layer/KeyPad/Keypad.c"
  1124 ;; Parameters:    Size  Location     Type
  1125 ;;  keypad          1   12[COMRAM] PTR const struct .
  1126 ;;		 -> keypad(8), 
  1127 ;; Auto vars:     Size  Location     Type
  1128 ;;  column_count    1   15[COMRAM] unsigned char 
  1129 ;;  row_counter     1   14[COMRAM] unsigned char 
  1130 ;;  RET             1   13[COMRAM] unsigned char 
  1131 ;; Return value:  Size  Location     Type
  1132 ;;                  1    wreg      unsigned char 
  1133 ;; Registers used:
  1134 ;;		wreg, fsr2l, fsr2h, status,2, status,0, prodl, prodh, cstack
  1135 ;; Tracked objects:
  1136 ;;		On entry : 0/0
  1137 ;;		On exit  : 0/0
  1138 ;;		Unchanged: 0/0
  1139 ;; Data sizes:     COMRAM   BANK0   BANK1   BANK2   BANK3   BANK4   BANK5   BANK6   BANK7   BANK8   BANK9  BANK10  BANK1
      +1  BANK12  BANK13  BANK14  BANK15
  1140 ;;      Params:         1       0       0       0       0       0       0       0       0       0       0       0       
      +0       0       0       0       0
  1141 ;;      Locals:         3       0       0       0       0       0       0       0       0       0       0       0       
      +0       0       0       0       0
  1142 ;;      Temps:          0       0       0       0       0       0       0       0       0       0       0       0       
      +0       0       0       0       0
  1143 ;;      Totals:         4       0       0       0       0       0       0       0       0       0       0       0       
      +0       0       0       0       0
  1144 ;;Total ram usage:        4 bytes
  1145 ;; Hardware stack levels used: 1
  1146 ;; Hardware stack levels required when called: 4
  1147 ;; This function calls:
  1148 ;;		_GPIO_PIN_Direction_Init
  1149 ;;		_GPIO_PIN_Init
  1150 ;; This function is called by:
  1151 ;;		_main
  1152 ;; This function uses a non-reentrant model
  1153 ;;
  1154                           
  1155                           	psect	text5
  1156   00206C                     __ptext5:
  1157                           	callstack 0
  1158   00206C                     _KEYPAD_Init:
  1159                           	callstack 26
  1160   00206C                     
  1161                           ;ECU_Layer/KeyPad/Keypad.c: 15:     uint8 row_counter=0 , column_counter=0;
  1162   00206C  0E00               	movlw	0
  1163   00206E  6E0F               	movwf	KEYPAD_Init@row_counter^0,c
  1164   002070  0E00               	movlw	0
  1165   002072  6E10               	movwf	KEYPAD_Init@column_counter^0,c
  1166                           
  1167                           ;ECU_Layer/KeyPad/Keypad.c: 16:     if ( ((void*)0) == keypad ){
  1168   002074  500D               	movf	KEYPAD_Init@keypad^0,w,c
  1169   002076  A4D8               	btfss	status,2,c
  1170   002078  EF40  F010         	goto	u3001
  1171   00207C  EF42  F010         	goto	u3000
  1172   002080                     u3001:
  1173   002080  EF46  F010         	goto	l3905
  1174   002084                     u3000:
  1175   002084                     
  1176                           ;ECU_Layer/KeyPad/Keypad.c: 17:         RET = (Std_ReturnType)0x00;
  1177   002084  0E00               	movlw	0
  1178   002086  6E0E               	movwf	KEYPAD_Init@RET^0,c
  1179                           
  1180                           ;ECU_Layer/KeyPad/Keypad.c: 18:     }
  1181   002088  EF68  F010         	goto	l3929
  1182   00208C                     l3905:
  1183                           
  1184                           ;ECU_Layer/KeyPad/Keypad.c: 20:         for (row_counter=0 ; row_counter<4 ; row_counter
      +                          ++){
  1185   00208C  0E00               	movlw	0
  1186   00208E  6E0F               	movwf	KEYPAD_Init@row_counter^0,c
  1187   002090                     l3911:
  1188   002090  500D               	movf	KEYPAD_Init@keypad^0,w,c
  1189   002092  240F               	addwf	KEYPAD_Init@row_counter^0,w,c
  1190   002094  6E0A               	movwf	GPIO_PIN_Init@_pin_config^0,c
  1191   002096  EC83  F00F         	call	_GPIO_PIN_Init	;wreg free
  1192   00209A                     
  1193                           ;ECU_Layer/KeyPad/Keypad.c: 22:         }
  1194   00209A  2A0F               	incf	KEYPAD_Init@row_counter^0,f,c
  1195   00209C  0E03               	movlw	3
  1196   00209E  640F               	cpfsgt	KEYPAD_Init@row_counter^0,c
  1197   0020A0  EF54  F010         	goto	u3011
  1198   0020A4  EF56  F010         	goto	u3010
  1199   0020A8                     u3011:
  1200   0020A8  EF48  F010         	goto	l3911
  1201   0020AC                     u3010:
  1202   0020AC                     
  1203                           ;ECU_Layer/KeyPad/Keypad.c: 23:         for (column_counter=0 ; column_counter<4 ; colum
      +                          n_counter++){
  1204   0020AC  0E00               	movlw	0
  1205   0020AE  6E10               	movwf	KEYPAD_Init@column_counter^0,c
  1206   0020B0                     l3923:
  1207                           
  1208                           ;ECU_Layer/KeyPad/Keypad.c: 24:             RET = GPIO_PIN_Direction_Init(&(keypad->colu
      +                          mn_pin[column_counter]));
  1209   0020B0  500D               	movf	KEYPAD_Init@keypad^0,w,c
  1210   0020B2  2410               	addwf	KEYPAD_Init@column_counter^0,w,c
  1211   0020B4  0F04               	addlw	4
  1212   0020B6  6E02               	movwf	GPIO_PIN_Direction_Init@_pin_config^0,c
  1213   0020B8  ECD5  F00C         	call	_GPIO_PIN_Direction_Init	;wreg free
  1214   0020BC  6E0E               	movwf	KEYPAD_Init@RET^0,c
  1215   0020BE                     
  1216                           ;ECU_Layer/KeyPad/Keypad.c: 25:         }
  1217   0020BE  2A10               	incf	KEYPAD_Init@column_counter^0,f,c
  1218   0020C0  0E03               	movlw	3
  1219   0020C2  6410               	cpfsgt	KEYPAD_Init@column_counter^0,c
  1220   0020C4  EF66  F010         	goto	u3021
  1221   0020C8  EF68  F010         	goto	u3020
  1222   0020CC                     u3021:
  1223   0020CC  EF58  F010         	goto	l3923
  1224   0020D0                     u3020:
  1225   0020D0                     l3929:
  1226                           
  1227                           ;ECU_Layer/KeyPad/Keypad.c: 27:     return RET;
  1228   0020D0  500E               	movf	KEYPAD_Init@RET^0,w,c
  1229   0020D2  0012               	return		;funcret
  1230   0020D4                     __end_of_KEYPAD_Init:
  1231                           	callstack 0
  1232                           
  1233 ;; *************** function _GPIO_PIN_Init *****************
  1234 ;; Defined at:
  1235 ;;		line 129 in file "MCAL_Layer/GPIO/HAL_GPIO.c"
  1236 ;; Parameters:    Size  Location     Type
  1237 ;;  _pin_config     1    9[COMRAM] PTR const struct .
  1238 ;;		 -> lcd$data_pins(8), lcd(10), keypad$row_pin(4), keypad(8), 
  1239 ;;		 -> RELAY_Init@relay_info(1), LED_Init@led_config(1), 
  1240 ;; Auto vars:     Size  Location     Type
  1241 ;;  RET             1   11[COMRAM] unsigned char 
  1242 ;; Return value:  Size  Location     Type
  1243 ;;                  1    wreg      unsigned char 
  1244 ;; Registers used:
  1245 ;;		wreg, fsr2l, fsr2h, status,2, status,0, prodl, prodh, cstack
  1246 ;; Tracked objects:
  1247 ;;		On entry : 0/0
  1248 ;;		On exit  : 0/0
  1249 ;;		Unchanged: 0/0
  1250 ;; Data sizes:     COMRAM   BANK0   BANK1   BANK2   BANK3   BANK4   BANK5   BANK6   BANK7   BANK8   BANK9  BANK10  BANK1
      +1  BANK12  BANK13  BANK14  BANK15
  1251 ;;      Params:         1       0       0       0       0       0       0       0       0       0       0       0       
      +0       0       0       0       0
  1252 ;;      Locals:         1       0       0       0       0       0       0       0       0       0       0       0       
      +0       0       0       0       0
  1253 ;;      Temps:          1       0       0       0       0       0       0       0       0       0       0       0       
      +0       0       0       0       0
  1254 ;;      Totals:         3       0       0       0       0       0       0       0       0       0       0       0       
      +0       0       0       0       0
  1255 ;;Total ram usage:        3 bytes
  1256 ;; Hardware stack levels used: 1
  1257 ;; Hardware stack levels required when called: 3
  1258 ;; This function calls:
  1259 ;;		_GPIO_PIN_Direction_Init
  1260 ;;		_GPIO_PIN_Write_Logic
  1261 ;; This function is called by:
  1262 ;;		_KEYPAD_Init
  1263 ;;		_LCD_8BITS_Init
  1264 ;;		_DC_MOTOR_Init
  1265 ;;		_LCD_4BITS_Init
  1266 ;;		_LED_Init
  1267 ;;		_RELAY_Init
  1268 ;;		_SEGMENT_Init
  1269 ;; This function uses a non-reentrant model
  1270 ;;
  1271                           
  1272                           	psect	text6
  1273   001F06                     __ptext6:
  1274                           	callstack 0
  1275   001F06                     _GPIO_PIN_Init:
  1276                           	callstack 26
  1277   001F06                     
  1278                           ;MCAL_Layer/GPIO/HAL_GPIO.c: 131:     if ( ((void*)0) == _pin_config ||(_pin_config->PIN
      +                          _NUMBER)>8 -1 || (_pin_config->PORT)>5 -1){
  1279   001F06  500A               	movf	GPIO_PIN_Init@_pin_config^0,w,c
  1280   001F08  B4D8               	btfsc	status,2,c
  1281   001F0A  EF89  F00F         	goto	u2771
  1282   001F0E  EF8B  F00F         	goto	u2770
  1283   001F12                     u2771:
  1284   001F12  EFA9  F00F         	goto	l3771
  1285   001F16                     u2770:
  1286   001F16  500A               	movf	GPIO_PIN_Init@_pin_config^0,w,c
  1287   001F18  6ED9               	movwf	fsr2l,c
  1288   001F1A  6ADA               	clrf	fsr2h,c
  1289   001F1C  30DF               	rrcf	223,w,c
  1290   001F1E  32E8               	rrcf	wreg,f,c
  1291   001F20  32E8               	rrcf	wreg,f,c
  1292   001F22  0B07               	andlw	7
  1293   001F24  6E0B               	movwf	??_GPIO_PIN_Init^0,c
  1294   001F26  0E08               	movlw	8
  1295   001F28  600B               	cpfslt	??_GPIO_PIN_Init^0,c
  1296   001F2A  EF99  F00F         	goto	u2781
  1297   001F2E  EF9B  F00F         	goto	u2780
  1298   001F32                     u2781:
  1299   001F32  EFA9  F00F         	goto	l3771
  1300   001F36                     u2780:
  1301   001F36  500A               	movf	GPIO_PIN_Init@_pin_config^0,w,c
  1302   001F38  6ED9               	movwf	fsr2l,c
  1303   001F3A  6ADA               	clrf	fsr2h,c
  1304   001F3C  50DF               	movf	223,w,c
  1305   001F3E  0B07               	andlw	7
  1306   001F40  6E0B               	movwf	??_GPIO_PIN_Init^0,c
  1307   001F42  0E04               	movlw	4
  1308   001F44  640B               	cpfsgt	??_GPIO_PIN_Init^0,c
  1309   001F46  EFA7  F00F         	goto	u2791
  1310   001F4A  EFA9  F00F         	goto	u2790
  1311   001F4E                     u2791:
  1312   001F4E  EFAD  F00F         	goto	l3773
  1313   001F52                     u2790:
  1314   001F52                     l3771:
  1315                           
  1316                           ;MCAL_Layer/GPIO/HAL_GPIO.c: 132:         RET = (Std_ReturnType)0x00;
  1317   001F52  0E00               	movlw	0
  1318   001F54  6E0C               	movwf	GPIO_PIN_Init@RET^0,c
  1319                           
  1320                           ;MCAL_Layer/GPIO/HAL_GPIO.c: 133:     }
  1321   001F56  EFBE  F00F         	goto	l3775
  1322   001F5A                     l3773:
  1323                           
  1324                           ;MCAL_Layer/GPIO/HAL_GPIO.c: 135:         RET = GPIO_PIN_Direction_Init(_pin_config);
  1325   001F5A  C00A  F002         	movff	GPIO_PIN_Init@_pin_config,GPIO_PIN_Direction_Init@_pin_config
  1326   001F5E  ECD5  F00C         	call	_GPIO_PIN_Direction_Init	;wreg free
  1327   001F62  6E0C               	movwf	GPIO_PIN_Init@RET^0,c
  1328                           
  1329                           ;MCAL_Layer/GPIO/HAL_GPIO.c: 136:         RET = GPIO_PIN_Write_Logic(_pin_config , _pin_
      +                          config->LOGIC);
  1330   001F64  C00A  F002         	movff	GPIO_PIN_Init@_pin_config,GPIO_PIN_Write_Logic@_pin_config
  1331   001F68  500A               	movf	GPIO_PIN_Init@_pin_config^0,w,c
  1332   001F6A  6ED9               	movwf	fsr2l,c
  1333   001F6C  6ADA               	clrf	fsr2h,c
  1334   001F6E  0E00               	movlw	0
  1335   001F70  BEDF               	btfsc	indf2,7,c
  1336   001F72  0E01               	movlw	1
  1337   001F74  6E03               	movwf	GPIO_PIN_Write_Logic@logic_status^0,c
  1338   001F76  ECAB  F00B         	call	_GPIO_PIN_Write_Logic	;wreg free
  1339   001F7A  6E0C               	movwf	GPIO_PIN_Init@RET^0,c
  1340   001F7C                     l3775:
  1341                           
  1342                           ;MCAL_Layer/GPIO/HAL_GPIO.c: 138:     return RET;
  1343   001F7C  500C               	movf	GPIO_PIN_Init@RET^0,w,c
  1344   001F7E  0012               	return		;funcret
  1345   001F80                     __end_of_GPIO_PIN_Init:
  1346                           	callstack 0
  1347                           
  1348 ;; *************** function _GPIO_PIN_Direction_Init *****************
  1349 ;; Defined at:
  1350 ;;		line 13 in file "MCAL_Layer/GPIO/HAL_GPIO.c"
  1351 ;; Parameters:    Size  Location     Type
  1352 ;;  _pin_config     1    1[COMRAM] PTR const struct .
  1353 ;;		 -> lcd$data_pins(8), lcd(10), keypad$column_pin(4), keypad$row_pin(4), 
  1354 ;;		 -> keypad(8), RELAY_Init@relay_info(1), LED_Init@led_config(1), 
  1355 ;; Auto vars:     Size  Location     Type
  1356 ;;  RET             1    7[COMRAM] unsigned char 
  1357 ;; Return value:  Size  Location     Type
  1358 ;;                  1    wreg      unsigned char 
  1359 ;; Registers used:
  1360 ;;		wreg, fsr2l, fsr2h, status,2, status,0, prodl, prodh
  1361 ;; Tracked objects:
  1362 ;;		On entry : 0/0
  1363 ;;		On exit  : 0/0
  1364 ;;		Unchanged: 0/0
  1365 ;; Data sizes:     COMRAM   BANK0   BANK1   BANK2   BANK3   BANK4   BANK5   BANK6   BANK7   BANK8   BANK9  BANK10  BANK1
      +1  BANK12  BANK13  BANK14  BANK15
  1366 ;;      Params:         1       0       0       0       0       0       0       0       0       0       0       0       
      +0       0       0       0       0
  1367 ;;      Locals:         1       0       0       0       0       0       0       0       0       0       0       0       
      +0       0       0       0       0
  1368 ;;      Temps:          5       0       0       0       0       0       0       0       0       0       0       0       
      +0       0       0       0       0
  1369 ;;      Totals:         7       0       0       0       0       0       0       0       0       0       0       0       
      +0       0       0       0       0
  1370 ;;Total ram usage:        7 bytes
  1371 ;; Hardware stack levels used: 1
  1372 ;; Hardware stack levels required when called: 2
  1373 ;; This function calls:
  1374 ;;		Nothing
  1375 ;; This function is called by:
  1376 ;;		_KEYPAD_Init
  1377 ;;		_GPIO_PIN_Init
  1378 ;;		_Button_Init
  1379 ;;		_RBx_Init
  1380 ;;		_INTx_PIN_Init
  1381 ;; This function uses a non-reentrant model
  1382 ;;
  1383                           
  1384                           	psect	text7
  1385   0019AA                     __ptext7:
  1386                           	callstack 0
  1387   0019AA                     _GPIO_PIN_Direction_Init:
  1388                           	callstack 26
  1389   0019AA                     
  1390                           ;MCAL_Layer/GPIO/HAL_GPIO.c: 14:     Std_ReturnType RET = (Std_ReturnType)0x01;
  1391   0019AA  0E01               	movlw	1
  1392   0019AC  6E08               	movwf	GPIO_PIN_Direction_Init@RET^0,c
  1393                           
  1394                           ;MCAL_Layer/GPIO/HAL_GPIO.c: 15:     if ( ((void*)0) == _pin_config || (_pin_config->PIN
      +                          _NUMBER)>8 -1 ){
  1395   0019AE  5002               	movf	GPIO_PIN_Direction_Init@_pin_config^0,w,c
  1396   0019B0  B4D8               	btfsc	status,2,c
  1397   0019B2  EFDD  F00C         	goto	u2591
  1398   0019B6  EFDF  F00C         	goto	u2590
  1399   0019BA                     u2591:
  1400   0019BA  EFEF  F00C         	goto	l3615
  1401   0019BE                     u2590:
  1402   0019BE  5002               	movf	GPIO_PIN_Direction_Init@_pin_config^0,w,c
  1403   0019C0  6ED9               	movwf	fsr2l,c
  1404   0019C2  6ADA               	clrf	fsr2h,c
  1405   0019C4  30DF               	rrcf	223,w,c
  1406   0019C6  32E8               	rrcf	wreg,f,c
  1407   0019C8  32E8               	rrcf	wreg,f,c
  1408   0019CA  0B07               	andlw	7
  1409   0019CC  6E03               	movwf	??_GPIO_PIN_Direction_Init^0,c
  1410   0019CE  0E07               	movlw	7
  1411   0019D0  6403               	cpfsgt	??_GPIO_PIN_Direction_Init^0,c
  1412   0019D2  EFED  F00C         	goto	u2601
  1413   0019D6  EFEF  F00C         	goto	u2600
  1414   0019DA                     u2601:
  1415   0019DA  EF46  F00D         	goto	l3623
  1416   0019DE                     u2600:
  1417   0019DE                     l3615:
  1418                           
  1419                           ;MCAL_Layer/GPIO/HAL_GPIO.c: 16:         RET = (Std_ReturnType)0x00;
  1420   0019DE  0E00               	movlw	0
  1421   0019E0  6E08               	movwf	GPIO_PIN_Direction_Init@RET^0,c
  1422                           
  1423                           ;MCAL_Layer/GPIO/HAL_GPIO.c: 17:     }
  1424   0019E2  EF66  F00D         	goto	l3625
  1425   0019E6                     l3617:
  1426                           
  1427                           ;MCAL_Layer/GPIO/HAL_GPIO.c: 22:                 (*TRIS_REG[_pin_config->PORT] &= ~(1<<_
      +                          pin_config->PIN_NUMBER));
  1428   0019E6  5002               	movf	GPIO_PIN_Direction_Init@_pin_config^0,w,c
  1429   0019E8  6ED9               	movwf	fsr2l,c
  1430   0019EA  6ADA               	clrf	fsr2h,c
  1431   0019EC  30DF               	rrcf	223,w,c
  1432   0019EE  32E8               	rrcf	wreg,f,c
  1433   0019F0  32E8               	rrcf	wreg,f,c
  1434   0019F2  0B07               	andlw	7
  1435   0019F4  6E03               	movwf	??_GPIO_PIN_Direction_Init^0,c
  1436   0019F6  0E01               	movlw	1
  1437   0019F8  6E04               	movwf	(??_GPIO_PIN_Direction_Init+1)^0,c
  1438   0019FA  2A03               	incf	??_GPIO_PIN_Direction_Init^0,f,c
  1439   0019FC  EF02  F00D         	goto	u2614
  1440   001A00                     u2615:
  1441   001A00  90D8               	bcf	status,0,c
  1442   001A02  3604               	rlcf	(??_GPIO_PIN_Direction_Init+1)^0,f,c
  1443   001A04                     u2614:
  1444   001A04  2E03               	decfsz	??_GPIO_PIN_Direction_Init^0,f,c
  1445   001A06  EF00  F00D         	goto	u2615
  1446   001A0A  5004               	movf	(??_GPIO_PIN_Direction_Init+1)^0,w,c
  1447   001A0C  0AFF               	xorlw	255
  1448   001A0E  6E05               	movwf	(??_GPIO_PIN_Direction_Init+2)^0,c
  1449   001A10  5002               	movf	GPIO_PIN_Direction_Init@_pin_config^0,w,c
  1450   001A12  6ED9               	movwf	fsr2l,c
  1451   001A14  6ADA               	clrf	fsr2h,c
  1452   001A16  50DF               	movf	223,w,c
  1453   001A18  0B07               	andlw	7
  1454   001A1A  0D02               	mullw	2
  1455   001A1C  50F3               	movf	243,w,c
  1456   001A1E  0F63               	addlw	low _TRIS_REG
  1457   001A20  6ED9               	movwf	fsr2l,c
  1458   001A22  6ADA               	clrf	fsr2h,c
  1459   001A24  CFDE F006          	movff	postinc2,??_GPIO_PIN_Direction_Init+3
  1460   001A28  CFDD F007          	movff	postdec2,??_GPIO_PIN_Direction_Init+4
  1461   001A2C  C006  FFD9         	movff	??_GPIO_PIN_Direction_Init+3,fsr2l
  1462   001A30  C007  FFDA         	movff	??_GPIO_PIN_Direction_Init+4,fsr2h
  1463   001A34  5005               	movf	(??_GPIO_PIN_Direction_Init+2)^0,w,c
  1464   001A36  16DF               	andwf	indf2,f,c
  1465                           
  1466                           ;MCAL_Layer/GPIO/HAL_GPIO.c: 23:                 break;
  1467   001A38  EF66  F00D         	goto	l3625
  1468   001A3C                     l3619:
  1469                           
  1470                           ;MCAL_Layer/GPIO/HAL_GPIO.c: 25:                 (*TRIS_REG[_pin_config->PORT] |= (1<<_p
      +                          in_config->PIN_NUMBER));
  1471   001A3C  5002               	movf	GPIO_PIN_Direction_Init@_pin_config^0,w,c
  1472   001A3E  6ED9               	movwf	fsr2l,c
  1473   001A40  6ADA               	clrf	fsr2h,c
  1474   001A42  30DF               	rrcf	223,w,c
  1475   001A44  32E8               	rrcf	wreg,f,c
  1476   001A46  32E8               	rrcf	wreg,f,c
  1477   001A48  0B07               	andlw	7
  1478   001A4A  6E03               	movwf	??_GPIO_PIN_Direction_Init^0,c
  1479   001A4C  0E01               	movlw	1
  1480   001A4E  6E04               	movwf	(??_GPIO_PIN_Direction_Init+1)^0,c
  1481   001A50  2A03               	incf	??_GPIO_PIN_Direction_Init^0,f,c
  1482   001A52  EF2D  F00D         	goto	u2624
  1483   001A56                     u2625:
  1484   001A56  90D8               	bcf	status,0,c
  1485   001A58  3604               	rlcf	(??_GPIO_PIN_Direction_Init+1)^0,f,c
  1486   001A5A                     u2624:
  1487   001A5A  2E03               	decfsz	??_GPIO_PIN_Direction_Init^0,f,c
  1488   001A5C  EF2B  F00D         	goto	u2625
  1489   001A60  5002               	movf	GPIO_PIN_Direction_Init@_pin_config^0,w,c
  1490   001A62  6ED9               	movwf	fsr2l,c
  1491   001A64  6ADA               	clrf	fsr2h,c
  1492   001A66  50DF               	movf	223,w,c
  1493   001A68  0B07               	andlw	7
  1494   001A6A  0D02               	mullw	2
  1495   001A6C  50F3               	movf	243,w,c
  1496   001A6E  0F63               	addlw	low _TRIS_REG
  1497   001A70  6ED9               	movwf	fsr2l,c
  1498   001A72  6ADA               	clrf	fsr2h,c
  1499   001A74  CFDE F005          	movff	postinc2,??_GPIO_PIN_Direction_Init+2
  1500   001A78  CFDD F006          	movff	postdec2,??_GPIO_PIN_Direction_Init+3
  1501   001A7C  C005  FFD9         	movff	??_GPIO_PIN_Direction_Init+2,fsr2l
  1502   001A80  C006  FFDA         	movff	??_GPIO_PIN_Direction_Init+3,fsr2h
  1503   001A84  5004               	movf	(??_GPIO_PIN_Direction_Init+1)^0,w,c
  1504   001A86  12DF               	iorwf	indf2,f,c
  1505                           
  1506                           ;MCAL_Layer/GPIO/HAL_GPIO.c: 26:                 break;
  1507   001A88  EF66  F00D         	goto	l3625
  1508   001A8C                     l3623:
  1509   001A8C  5002               	movf	GPIO_PIN_Direction_Init@_pin_config^0,w,c
  1510   001A8E  6ED9               	movwf	fsr2l,c
  1511   001A90  6ADA               	clrf	fsr2h,c
  1512   001A92  BCDF               	btfsc	indf2,6,c
  1513   001A94  EF4E  F00D         	goto	u2631
  1514   001A98  EF51  F00D         	goto	u2630
  1515   001A9C                     u2631:
  1516   001A9C  0E01               	movlw	1
  1517   001A9E  EF52  F00D         	goto	u2640
  1518   001AA2                     u2630:
  1519   001AA2  0E00               	movlw	0
  1520   001AA4                     u2640:
  1521   001AA4  6E03               	movwf	??_GPIO_PIN_Direction_Init^0,c
  1522   001AA6  6A04               	clrf	(??_GPIO_PIN_Direction_Init+1)^0,c
  1523                           
  1524                           ; Switch on 2 bytes has been partitioned into a top level switch of size 1, and 1 sub-sw
      +                          itches
  1525                           ; Switch size 1, requested type "simple"
  1526                           ; Number of cases is 1, Range of values is 0 to 0
  1527                           ; switch strategies available:
  1528                           ; Name         Instructions Cycles
  1529                           ; simple_byte            4     3 (average)
  1530                           ;	Chosen strategy is simple_byte
  1531   001AA8  5004               	movf	(??_GPIO_PIN_Direction_Init+1)^0,w,c
  1532   001AAA  0A00               	xorlw	0	; case 0
  1533   001AAC  B4D8               	btfsc	status,2,c
  1534   001AAE  EF5B  F00D         	goto	l4609
  1535   001AB2  EFEF  F00C         	goto	l3615
  1536   001AB6                     l4609:
  1537                           
  1538                           ; Switch size 1, requested type "simple"
  1539                           ; Number of cases is 2, Range of values is 0 to 1
  1540                           ; switch strategies available:
  1541                           ; Name         Instructions Cycles
  1542                           ; simple_byte            7     4 (average)
  1543                           ;	Chosen strategy is simple_byte
  1544   001AB6  5003               	movf	??_GPIO_PIN_Direction_Init^0,w,c
  1545   001AB8  0A00               	xorlw	0	; case 0
  1546   001ABA  B4D8               	btfsc	status,2,c
  1547   001ABC  EFF3  F00C         	goto	l3617
  1548   001AC0  0A01               	xorlw	1	; case 1
  1549   001AC2  B4D8               	btfsc	status,2,c
  1550   001AC4  EF1E  F00D         	goto	l3619
  1551   001AC8  EFEF  F00C         	goto	l3615
  1552   001ACC                     l3625:
  1553                           
  1554                           ;MCAL_Layer/GPIO/HAL_GPIO.c: 31:     return RET;
  1555   001ACC  5008               	movf	GPIO_PIN_Direction_Init@RET^0,w,c
  1556   001ACE  0012               	return		;funcret
  1557   001AD0                     __end_of_GPIO_PIN_Direction_Init:
  1558                           	callstack 0
  1559                           
  1560 ;; *************** function _Get_Second_Number *****************
  1561 ;; Defined at:
  1562 ;;		line 164 in file "Application.c"
  1563 ;; Parameters:    Size  Location     Type
  1564 ;;		None
  1565 ;; Auto vars:     Size  Location     Type
  1566 ;;  ret             1    0        unsigned char 
  1567 ;; Return value:  Size  Location     Type
  1568 ;;                  1    wreg      void 
  1569 ;; Registers used:
  1570 ;;		wreg, fsr0l, fsr0h, fsr1l, fsr1h, fsr2l, fsr2h, status,2, status,0, tblptrl, tblptrh, tblptru, prodl, prodh, cstack
  1571 ;; Tracked objects:
  1572 ;;		On entry : 0/0
  1573 ;;		On exit  : 0/0
  1574 ;;		Unchanged: 0/0
  1575 ;; Data sizes:     COMRAM   BANK0   BANK1   BANK2   BANK3   BANK4   BANK5   BANK6   BANK7   BANK8   BANK9  BANK10  BANK1
      +1  BANK12  BANK13  BANK14  BANK15
  1576 ;;      Params:         0       0       0       0       0       0       0       0       0       0       0       0       
      +0       0       0       0       0
  1577 ;;      Locals:         0       0       0       0       0       0       0       0       0       0       0       0       
      +0       0       0       0       0
  1578 ;;      Temps:          2       0       0       0       0       0       0       0       0       0       0       0       
      +0       0       0       0       0
  1579 ;;      Totals:         2       0       0       0       0       0       0       0       0       0       0       0       
      +0       0       0       0       0
  1580 ;;Total ram usage:        2 bytes
  1581 ;; Hardware stack levels used: 1
  1582 ;; Hardware stack levels required when called: 8
  1583 ;; This function calls:
  1584 ;;		_Get_First_Number
  1585 ;;		_KEYPAD_Get_Number
  1586 ;;		_LCD_8BITS_Send_Char
  1587 ;;		_LCD_8BITS_Send_Command
  1588 ;;		_LCD_8BITS_Send_Number
  1589 ;;		_LCD_8BITS_Send_String
  1590 ;; This function is called by:
  1591 ;;		_main
  1592 ;; This function uses a non-reentrant model
  1593 ;;
  1594                           
  1595                           	psect	text8
  1596   00155E                     __ptext8:
  1597                           	callstack 0
  1598   00155E                     _Get_Second_Number:
  1599                           	callstack 22
  1600   00155E                     
  1601                           ;Application.c: 166:     count = 0;
  1602   00155E  0E00               	movlw	0
  1603   001560  6E48               	movwf	_count^0,c
  1604                           
  1605                           ;Application.c: 167:     while ( count<=2 ){
  1606   001562  EFA2  F00B         	goto	l4075
  1607   001566                     l4001:
  1608   001566  0E8A               	movlw	low _keypad
  1609   001568  6E0A               	movwf	KEYPAD_Get_Number@keypad^0,c
  1610   00156A  5048               	movf	_count^0,w,c
  1611   00156C  0F53               	addlw	low _second_num
  1612   00156E  6E0B               	movwf	KEYPAD_Get_Number@number^0,c
  1613   001570  EC68  F00D         	call	_KEYPAD_Get_Number	;wreg free
  1614   001574                     
  1615                           ;Application.c: 169:             if ( second_num[count] != '\0' ){
  1616   001574  5048               	movf	_count^0,w,c
  1617   001576  0F53               	addlw	low _second_num
  1618   001578  6ED9               	movwf	fsr2l,c
  1619   00157A  6ADA               	clrf	fsr2h,c
  1620   00157C  50DF               	movf	indf2,w,c
  1621   00157E  B4D8               	btfsc	status,2,c
  1622   001580  EFC4  F00A         	goto	u3071
  1623   001584  EFC6  F00A         	goto	u3070
  1624   001588                     u3071:
  1625   001588  EFA2  F00B         	goto	l4075
  1626   00158C                     u3070:
  1627   00158C                     
  1628                           ;Application.c: 170:                 if ( count==0 && (second_num[0]== '=' || second_num
      +                          [0]== '+' || second_num[0]== '-' || second_num[0]=='*' || second_num[0]== '/' )){
  1629   00158C  5048               	movf	_count^0,w,c
  1630   00158E  A4D8               	btfss	status,2,c
  1631   001590  EFCC  F00A         	goto	u3081
  1632   001594  EFCE  F00A         	goto	u3080
  1633   001598                     u3081:
  1634   001598  EF48  F00B         	goto	l4043
  1635   00159C                     u3080:
  1636   00159C  0E3D               	movlw	61
  1637   00159E  1853               	xorwf	_second_num^0,w,c
  1638   0015A0  B4D8               	btfsc	status,2,c
  1639   0015A2  EFD5  F00A         	goto	u3091
  1640   0015A6  EFD7  F00A         	goto	u3090
  1641   0015AA                     u3091:
  1642   0015AA  EFFB  F00A         	goto	l4017
  1643   0015AE                     u3090:
  1644   0015AE  0E2B               	movlw	43
  1645   0015B0  1853               	xorwf	_second_num^0,w,c
  1646   0015B2  B4D8               	btfsc	status,2,c
  1647   0015B4  EFDE  F00A         	goto	u3101
  1648   0015B8  EFE0  F00A         	goto	u3100
  1649   0015BC                     u3101:
  1650   0015BC  EFFB  F00A         	goto	l4017
  1651   0015C0                     u3100:
  1652   0015C0  0E2D               	movlw	45
  1653   0015C2  1853               	xorwf	_second_num^0,w,c
  1654   0015C4  B4D8               	btfsc	status,2,c
  1655   0015C6  EFE7  F00A         	goto	u3111
  1656   0015CA  EFE9  F00A         	goto	u3110
  1657   0015CE                     u3111:
  1658   0015CE  EFFB  F00A         	goto	l4017
  1659   0015D2                     u3110:
  1660   0015D2  0E2A               	movlw	42
  1661   0015D4  1853               	xorwf	_second_num^0,w,c
  1662   0015D6  B4D8               	btfsc	status,2,c
  1663   0015D8  EFF0  F00A         	goto	u3121
  1664   0015DC  EFF2  F00A         	goto	u3120
  1665   0015E0                     u3121:
  1666   0015E0  EFFB  F00A         	goto	l4017
  1667   0015E4                     u3120:
  1668   0015E4  0E2F               	movlw	47
  1669   0015E6  1853               	xorwf	_second_num^0,w,c
  1670   0015E8  A4D8               	btfss	status,2,c
  1671   0015EA  EFF9  F00A         	goto	u3131
  1672   0015EE  EFFB  F00A         	goto	u3130
  1673   0015F2                     u3131:
  1674   0015F2  EF48  F00B         	goto	l4043
  1675   0015F6                     u3130:
  1676   0015F6                     l4017:
  1677   0015F6  0E71               	movlw	low _lcd
  1678   0015F8  6E0C               	movwf	LCD_8BITS_Send_Command@lcd^0,c
  1679   0015FA  0E01               	movlw	1
  1680   0015FC  6E0D               	movwf	LCD_8BITS_Send_Command@command^0,c
  1681   0015FE  ECFB  F00F         	call	_LCD_8BITS_Send_Command	;wreg free
  1682   001602                     
  1683                           ;Application.c: 172:                     _delay((unsigned long)((100)*(8000000UL/4000.0)
      +                          ));
  1684   001602  0E02               	movlw	2
  1685   001604  6E30               	movwf	(??_Get_Second_Number+1)^0,c
  1686   001606  0E04               	movlw	4
  1687   001608  6E2F               	movwf	??_Get_Second_Number^0,c
  1688   00160A  0EBA               	movlw	186
  1689   00160C                     u3717:
  1690   00160C  2EE8               	decfsz	wreg,f,c
  1691   00160E  D7FE               	bra	u3717
  1692   001610  2E2F               	decfsz	??_Get_Second_Number^0,f,c
  1693   001612  D7FC               	bra	u3717
  1694   001614  2E30               	decfsz	(??_Get_Second_Number+1)^0,f,c
  1695   001616  D7FA               	bra	u3717
  1696   001618  D000               	nop2	
  1697   00161A  0E71               	movlw	low _lcd
  1698   00161C  6E12               	movwf	LCD_8BITS_Send_String@lcd^0,c
  1699   00161E  0E11               	movlw	low STR_4
  1700   001620  6E13               	movwf	LCD_8BITS_Send_String@string^0,c
  1701   001622  5013               	movf	LCD_8BITS_Send_String@string^0,w,c
  1702   001624  A4D8               	btfss	status,2,c
  1703   001626  0E10               	movlw	high __smallconst
  1704   001628  6E14               	movwf	(LCD_8BITS_Send_String@string+1)^0,c
  1705   00162A  EC41  F00F         	call	_LCD_8BITS_Send_String	;wreg free
  1706   00162E                     
  1707                           ;Application.c: 174:                     _delay((unsigned long)((2000)*(8000000UL/4000.0
      +                          )));
  1708   00162E  0E15               	movlw	21
  1709   001630  6E30               	movwf	(??_Get_Second_Number+1)^0,c
  1710   001632  0E4B               	movlw	75
  1711   001634  6E2F               	movwf	??_Get_Second_Number^0,c
  1712   001636  0EBE               	movlw	190
  1713   001638                     u3727:
  1714   001638  2EE8               	decfsz	wreg,f,c
  1715   00163A  D7FE               	bra	u3727
  1716   00163C  2E2F               	decfsz	??_Get_Second_Number^0,f,c
  1717   00163E  D7FC               	bra	u3727
  1718   001640  2E30               	decfsz	(??_Get_Second_Number+1)^0,f,c
  1719   001642  D7FA               	bra	u3727
  1720   001644  D000               	nop2	
  1721   001646  0E71               	movlw	low _lcd
  1722   001648  6E0C               	movwf	LCD_8BITS_Send_Command@lcd^0,c
  1723   00164A  0E01               	movlw	1
  1724   00164C  6E0D               	movwf	LCD_8BITS_Send_Command@command^0,c
  1725   00164E  ECFB  F00F         	call	_LCD_8BITS_Send_Command	;wreg free
  1726   001652                     
  1727                           ;Application.c: 176:                     for ( count=0 ;count<3 ;count++){
  1728   001652  0E00               	movlw	0
  1729   001654  6E48               	movwf	_count^0,c
  1730   001656                     l4029:
  1731   001656  0E02               	movlw	2
  1732   001658  6448               	cpfsgt	_count^0,c
  1733   00165A  EF31  F00B         	goto	u3141
  1734   00165E  EF33  F00B         	goto	u3140
  1735   001662                     u3141:
  1736   001662  EF35  F00B         	goto	l4033
  1737   001666                     u3140:
  1738   001666  EF42  F00B         	goto	l4039
  1739   00166A                     l4033:
  1740                           
  1741                           ;Application.c: 177:                             second_num[count] = '\0';
  1742   00166A  5048               	movf	_count^0,w,c
  1743   00166C  0F53               	addlw	low _second_num
  1744   00166E  6ED9               	movwf	fsr2l,c
  1745   001670  6ADA               	clrf	fsr2h,c
  1746   001672  6ADF               	clrf	indf2,c
  1747                           
  1748                           ;Application.c: 178:                             first_num[count] = '\0';
  1749   001674  5048               	movf	_count^0,w,c
  1750   001676  0F56               	addlw	low _first_num
  1751   001678  6ED9               	movwf	fsr2l,c
  1752   00167A  6ADA               	clrf	fsr2h,c
  1753   00167C  6ADF               	clrf	indf2,c
  1754   00167E                     
  1755                           ;Application.c: 179:                     }
  1756   00167E  2A48               	incf	_count^0,f,c
  1757   001680  EF2B  F00B         	goto	l4029
  1758   001684                     l4039:
  1759                           
  1760                           ;Application.c: 180:                     Get_First_Number();
  1761   001684  EC12  F008         	call	_Get_First_Number	;wreg free
  1762   001688                     
  1763                           ;Application.c: 181:                     count=0;
  1764   001688  0E00               	movlw	0
  1765   00168A  6E48               	movwf	_count^0,c
  1766                           
  1767                           ;Application.c: 182:                 }
  1768   00168C  EFA2  F00B         	goto	l4075
  1769   001690                     l4043:
  1770   001690  5048               	movf	_count^0,w,c
  1771   001692  0F53               	addlw	low _second_num
  1772   001694  6ED9               	movwf	fsr2l,c
  1773   001696  6ADA               	clrf	fsr2h,c
  1774   001698  0E43               	movlw	67
  1775   00169A  18DE               	xorwf	postinc2,w,c
  1776   00169C  A4D8               	btfss	status,2,c
  1777   00169E  EF53  F00B         	goto	u3151
  1778   0016A2  EF55  F00B         	goto	u3150
  1779   0016A6                     u3151:
  1780   0016A6  EF74  F00B         	goto	l4063
  1781   0016AA                     u3150:
  1782   0016AA  0E71               	movlw	low _lcd
  1783   0016AC  6E0C               	movwf	LCD_8BITS_Send_Command@lcd^0,c
  1784   0016AE  0E01               	movlw	1
  1785   0016B0  6E0D               	movwf	LCD_8BITS_Send_Command@command^0,c
  1786   0016B2  ECFB  F00F         	call	_LCD_8BITS_Send_Command	;wreg free
  1787   0016B6                     
  1788                           ;Application.c: 185:                     for ( count=0 ;count<3 ;count++){
  1789   0016B6  0E00               	movlw	0
  1790   0016B8  6E48               	movwf	_count^0,c
  1791   0016BA                     l4049:
  1792   0016BA  0E02               	movlw	2
  1793   0016BC  6448               	cpfsgt	_count^0,c
  1794   0016BE  EF63  F00B         	goto	u3161
  1795   0016C2  EF65  F00B         	goto	u3160
  1796   0016C6                     u3161:
  1797   0016C6  EF67  F00B         	goto	l4053
  1798   0016CA                     u3160:
  1799   0016CA  EF42  F00B         	goto	l4039
  1800   0016CE                     l4053:
  1801                           
  1802                           ;Application.c: 186:                             second_num[count] = '\0';
  1803   0016CE  5048               	movf	_count^0,w,c
  1804   0016D0  0F53               	addlw	low _second_num
  1805   0016D2  6ED9               	movwf	fsr2l,c
  1806   0016D4  6ADA               	clrf	fsr2h,c
  1807   0016D6  6ADF               	clrf	indf2,c
  1808                           
  1809                           ;Application.c: 187:                             first_num[count] = '\0';
  1810   0016D8  5048               	movf	_count^0,w,c
  1811   0016DA  0F56               	addlw	low _first_num
  1812   0016DC  6ED9               	movwf	fsr2l,c
  1813   0016DE  6ADA               	clrf	fsr2h,c
  1814   0016E0  6ADF               	clrf	indf2,c
  1815   0016E2                     
  1816                           ;Application.c: 188:                     }
  1817   0016E2  2A48               	incf	_count^0,f,c
  1818   0016E4  EF5D  F00B         	goto	l4049
  1819   0016E8                     l4063:
  1820                           
  1821                           ;Application.c: 194:                     if ( second_num[count]== '=' ){
  1822   0016E8  5048               	movf	_count^0,w,c
  1823   0016EA  0F53               	addlw	low _second_num
  1824   0016EC  6ED9               	movwf	fsr2l,c
  1825   0016EE  6ADA               	clrf	fsr2h,c
  1826   0016F0  0E3D               	movlw	61
  1827   0016F2  18DE               	xorwf	postinc2,w,c
  1828   0016F4  A4D8               	btfss	status,2,c
  1829   0016F6  EF7F  F00B         	goto	u3171
  1830   0016FA  EF81  F00B         	goto	u3170
  1831   0016FE                     u3171:
  1832   0016FE  EF92  F00B         	goto	l4071
  1833   001702                     u3170:
  1834   001702  0E71               	movlw	low _lcd
  1835   001704  6E0C               	movwf	LCD_8BITS_Send_Char@lcd^0,c
  1836   001706  5048               	movf	_count^0,w,c
  1837   001708  0F53               	addlw	low _second_num
  1838   00170A  6ED9               	movwf	fsr2l,c
  1839   00170C  6ADA               	clrf	fsr2h,c
  1840   00170E  50DF               	movf	indf2,w,c
  1841   001710  6E0D               	movwf	LCD_8BITS_Send_Char@data^0,c
  1842   001712  ECC0  F00F         	call	_LCD_8BITS_Send_Char	;wreg free
  1843   001716                     
  1844                           ;Application.c: 196:                         second_num[count] = '\0';
  1845   001716  5048               	movf	_count^0,w,c
  1846   001718  0F53               	addlw	low _second_num
  1847   00171A  6ED9               	movwf	fsr2l,c
  1848   00171C  6ADA               	clrf	fsr2h,c
  1849   00171E  6ADF               	clrf	indf2,c
  1850                           
  1851                           ;Application.c: 197:                         break;
  1852   001720  EFAA  F00B         	goto	l988
  1853   001724                     l4071:
  1854   001724  0E71               	movlw	low _lcd
  1855   001726  6E16               	movwf	LCD_8BITS_Send_Number@lcd^0,c
  1856   001728  5048               	movf	_count^0,w,c
  1857   00172A  0F53               	addlw	low _second_num
  1858   00172C  6ED9               	movwf	fsr2l,c
  1859   00172E  6ADA               	clrf	fsr2h,c
  1860   001730  50DF               	movf	indf2,w,c
  1861   001732  6E2F               	movwf	??_Get_Second_Number^0,c
  1862   001734  502F               	movf	??_Get_Second_Number^0,w,c
  1863   001736  6E17               	movwf	LCD_8BITS_Send_Number@number^0,c
  1864   001738  6A18               	clrf	(LCD_8BITS_Send_Number@number+1)^0,c
  1865   00173A  6A19               	clrf	(LCD_8BITS_Send_Number@number+2)^0,c
  1866   00173C  6A1A               	clrf	(LCD_8BITS_Send_Number@number+3)^0,c
  1867   00173E  EC41  F00C         	call	_LCD_8BITS_Send_Number	;wreg free
  1868   001742                     
  1869                           ;Application.c: 201:                         count++;
  1870   001742  2A48               	incf	_count^0,f,c
  1871   001744                     l4075:
  1872                           
  1873                           ;Application.c: 167:     while ( count<=2 ){
  1874   001744  0E02               	movlw	2
  1875   001746  6448               	cpfsgt	_count^0,c
  1876   001748  EFA8  F00B         	goto	u3181
  1877   00174C  EFAA  F00B         	goto	u3180
  1878   001750                     u3181:
  1879   001750  EFB3  F00A         	goto	l4001
  1880   001754                     u3180:
  1881   001754                     l988:
  1882   001754  0012               	return		;funcret
  1883   001756                     __end_of_Get_Second_Number:
  1884                           	callstack 0
  1885                           
  1886 ;; *************** function _Get_First_Number *****************
  1887 ;; Defined at:
  1888 ;;		line 107 in file "Application.c"
  1889 ;; Parameters:    Size  Location     Type
  1890 ;;		None
  1891 ;; Auto vars:     Size  Location     Type
  1892 ;;  ret             1    0        unsigned char 
  1893 ;; Return value:  Size  Location     Type
  1894 ;;                  1    wreg      void 
  1895 ;; Registers used:
  1896 ;;		wreg, fsr0l, fsr0h, fsr1l, fsr1h, fsr2l, fsr2h, status,2, status,0, tblptrl, tblptrh, tblptru, prodl, prodh, cstack
  1897 ;; Tracked objects:
  1898 ;;		On entry : 0/0
  1899 ;;		On exit  : 0/0
  1900 ;;		Unchanged: 0/0
  1901 ;; Data sizes:     COMRAM   BANK0   BANK1   BANK2   BANK3   BANK4   BANK5   BANK6   BANK7   BANK8   BANK9  BANK10  BANK1
      +1  BANK12  BANK13  BANK14  BANK15
  1902 ;;      Params:         0       0       0       0       0       0       0       0       0       0       0       0       
      +0       0       0       0       0
  1903 ;;      Locals:         0       0       0       0       0       0       0       0       0       0       0       0       
      +0       0       0       0       0
  1904 ;;      Temps:          2       0       0       0       0       0       0       0       0       0       0       0       
      +0       0       0       0       0
  1905 ;;      Totals:         2       0       0       0       0       0       0       0       0       0       0       0       
      +0       0       0       0       0
  1906 ;;Total ram usage:        2 bytes
  1907 ;; Hardware stack levels used: 1
  1908 ;; Hardware stack levels required when called: 7
  1909 ;; This function calls:
  1910 ;;		_KEYPAD_Get_Number
  1911 ;;		_LCD_8BITS_Send_Char
  1912 ;;		_LCD_8BITS_Send_Command
  1913 ;;		_LCD_8BITS_Send_Number
  1914 ;;		_LCD_8BITS_Send_String
  1915 ;; This function is called by:
  1916 ;;		_main
  1917 ;;		_Get_Second_Number
  1918 ;; This function uses a non-reentrant model
  1919 ;;
  1920                           
  1921                           	psect	text9
  1922   001024                     __ptext9:
  1923                           	callstack 0
  1924   001024                     _Get_First_Number:
  1925                           	callstack 22
  1926   001024                     
  1927                           ;Application.c: 109:     count = 0;
  1928   001024  0E00               	movlw	0
  1929   001026  6E48               	movwf	_count^0,c
  1930                           
  1931                           ;Application.c: 110:     while ( count<=2 ){
  1932   001028  EF63  F009         	goto	l3899
  1933   00102C                     l3803:
  1934   00102C  0E8A               	movlw	low _keypad
  1935   00102E  6E0A               	movwf	KEYPAD_Get_Number@keypad^0,c
  1936   001030  5048               	movf	_count^0,w,c
  1937   001032  0F56               	addlw	low _first_num
  1938   001034  6E0B               	movwf	KEYPAD_Get_Number@number^0,c
  1939   001036  EC68  F00D         	call	_KEYPAD_Get_Number	;wreg free
  1940   00103A                     
  1941                           ;Application.c: 112:             if ( first_num[count] != '\0' ){
  1942   00103A  5048               	movf	_count^0,w,c
  1943   00103C  0F56               	addlw	low _first_num
  1944   00103E  6ED9               	movwf	fsr2l,c
  1945   001040  6ADA               	clrf	fsr2h,c
  1946   001042  50DF               	movf	indf2,w,c
  1947   001044  B4D8               	btfsc	status,2,c
  1948   001046  EF27  F008         	goto	u2821
  1949   00104A  EF29  F008         	goto	u2820
  1950   00104E                     u2821:
  1951   00104E  EF63  F009         	goto	l3899
  1952   001052                     u2820:
  1953   001052                     
  1954                           ;Application.c: 113:                 if ( count==0 && (first_num[0]== '=' || first_num[0
      +                          ]== '+' || first_num[0]== '-' || first_num[0]=='*' || first_num[0]== '/' )){
  1955   001052  5048               	movf	_count^0,w,c
  1956   001054  A4D8               	btfss	status,2,c
  1957   001056  EF2F  F008         	goto	u2831
  1958   00105A  EF31  F008         	goto	u2830
  1959   00105E                     u2831:
  1960   00105E  EF80  F008         	goto	l3829
  1961   001062                     u2830:
  1962   001062  0E3D               	movlw	61
  1963   001064  1856               	xorwf	_first_num^0,w,c
  1964   001066  B4D8               	btfsc	status,2,c
  1965   001068  EF38  F008         	goto	u2841
  1966   00106C  EF3A  F008         	goto	u2840
  1967   001070                     u2841:
  1968   001070  EF5E  F008         	goto	l3819
  1969   001074                     u2840:
  1970   001074  0E2B               	movlw	43
  1971   001076  1856               	xorwf	_first_num^0,w,c
  1972   001078  B4D8               	btfsc	status,2,c
  1973   00107A  EF41  F008         	goto	u2851
  1974   00107E  EF43  F008         	goto	u2850
  1975   001082                     u2851:
  1976   001082  EF5E  F008         	goto	l3819
  1977   001086                     u2850:
  1978   001086  0E2D               	movlw	45
  1979   001088  1856               	xorwf	_first_num^0,w,c
  1980   00108A  B4D8               	btfsc	status,2,c
  1981   00108C  EF4A  F008         	goto	u2861
  1982   001090  EF4C  F008         	goto	u2860
  1983   001094                     u2861:
  1984   001094  EF5E  F008         	goto	l3819
  1985   001098                     u2860:
  1986   001098  0E2A               	movlw	42
  1987   00109A  1856               	xorwf	_first_num^0,w,c
  1988   00109C  B4D8               	btfsc	status,2,c
  1989   00109E  EF53  F008         	goto	u2871
  1990   0010A2  EF55  F008         	goto	u2870
  1991   0010A6                     u2871:
  1992   0010A6  EF5E  F008         	goto	l3819
  1993   0010AA                     u2870:
  1994   0010AA  0E2F               	movlw	47
  1995   0010AC  1856               	xorwf	_first_num^0,w,c
  1996   0010AE  A4D8               	btfss	status,2,c
  1997   0010B0  EF5C  F008         	goto	u2881
  1998   0010B4  EF5E  F008         	goto	u2880
  1999   0010B8                     u2881:
  2000   0010B8  EF80  F008         	goto	l3829
  2001   0010BC                     u2880:
  2002   0010BC                     l3819:
  2003   0010BC  0E71               	movlw	low _lcd
  2004   0010BE  6E12               	movwf	LCD_8BITS_Send_String@lcd^0,c
  2005   0010C0  0E11               	movlw	low STR_4
  2006   0010C2  6E13               	movwf	LCD_8BITS_Send_String@string^0,c
  2007   0010C4  5013               	movf	LCD_8BITS_Send_String@string^0,w,c
  2008   0010C6  A4D8               	btfss	status,2,c
  2009   0010C8  0E10               	movlw	high __smallconst
  2010   0010CA  6E14               	movwf	(LCD_8BITS_Send_String@string+1)^0,c
  2011   0010CC  EC41  F00F         	call	_LCD_8BITS_Send_String	;wreg free
  2012   0010D0                     
  2013                           ;Application.c: 115:                     _delay((unsigned long)((2000)*(8000000UL/4000.0
      +                          )));
  2014   0010D0  0E15               	movlw	21
  2015   0010D2  6E2E               	movwf	(??_Get_First_Number+1)^0,c
  2016   0010D4  0E4B               	movlw	75
  2017   0010D6  6E2D               	movwf	??_Get_First_Number^0,c
  2018   0010D8  0EBE               	movlw	190
  2019   0010DA                     u3737:
  2020   0010DA  2EE8               	decfsz	wreg,f,c
  2021   0010DC  D7FE               	bra	u3737
  2022   0010DE  2E2D               	decfsz	??_Get_First_Number^0,f,c
  2023   0010E0  D7FC               	bra	u3737
  2024   0010E2  2E2E               	decfsz	(??_Get_First_Number+1)^0,f,c
  2025   0010E4  D7FA               	bra	u3737
  2026   0010E6  D000               	nop2	
  2027   0010E8  0E71               	movlw	low _lcd
  2028   0010EA  6E0C               	movwf	LCD_8BITS_Send_Command@lcd^0,c
  2029   0010EC  0E01               	movlw	1
  2030   0010EE  6E0D               	movwf	LCD_8BITS_Send_Command@command^0,c
  2031   0010F0  ECFB  F00F         	call	_LCD_8BITS_Send_Command	;wreg free
  2032   0010F4                     
  2033                           ;Application.c: 117:                     first_num[0] = '\0';
  2034   0010F4  0E00               	movlw	0
  2035   0010F6  6E56               	movwf	_first_num^0,c
  2036   0010F8                     l3827:
  2037                           
  2038                           ;Application.c: 118:                     count = 0;
  2039   0010F8  0E00               	movlw	0
  2040   0010FA  6E48               	movwf	_count^0,c
  2041                           
  2042                           ;Application.c: 119:                 }
  2043   0010FC  EF63  F009         	goto	l3899
  2044   001100                     l3829:
  2045   001100  5048               	movf	_count^0,w,c
  2046   001102  0F56               	addlw	low _first_num
  2047   001104  6ED9               	movwf	fsr2l,c
  2048   001106  6ADA               	clrf	fsr2h,c
  2049   001108  0E43               	movlw	67
  2050   00110A  18DE               	xorwf	postinc2,w,c
  2051   00110C  A4D8               	btfss	status,2,c
  2052   00110E  EF8B  F008         	goto	u2891
  2053   001112  EF8D  F008         	goto	u2890
  2054   001116                     u2891:
  2055   001116  EFA7  F008         	goto	l3847
  2056   00111A                     u2890:
  2057   00111A  0E71               	movlw	low _lcd
  2058   00111C  6E0C               	movwf	LCD_8BITS_Send_Command@lcd^0,c
  2059   00111E  0E01               	movlw	1
  2060   001120  6E0D               	movwf	LCD_8BITS_Send_Command@command^0,c
  2061   001122  ECFB  F00F         	call	_LCD_8BITS_Send_Command	;wreg free
  2062   001126                     
  2063                           ;Application.c: 123:                     for ( count=0 ;count<3 ;count++){
  2064   001126  0E00               	movlw	0
  2065   001128  6E48               	movwf	_count^0,c
  2066   00112A                     l3835:
  2067   00112A  0E02               	movlw	2
  2068   00112C  6448               	cpfsgt	_count^0,c
  2069   00112E  EF9B  F008         	goto	u2901
  2070   001132  EF9D  F008         	goto	u2900
  2071   001136                     u2901:
  2072   001136  EF9F  F008         	goto	l3839
  2073   00113A                     u2900:
  2074   00113A  EF7C  F008         	goto	l3827
  2075   00113E                     l3839:
  2076                           
  2077                           ;Application.c: 124:                             first_num[count] = '\0';
  2078   00113E  5048               	movf	_count^0,w,c
  2079   001140  0F56               	addlw	low _first_num
  2080   001142  6ED9               	movwf	fsr2l,c
  2081   001144  6ADA               	clrf	fsr2h,c
  2082   001146  6ADF               	clrf	indf2,c
  2083   001148                     
  2084                           ;Application.c: 125:                     }
  2085   001148  2A48               	incf	_count^0,f,c
  2086   00114A  EF95  F008         	goto	l3835
  2087   00114E                     l3847:
  2088                           
  2089                           ;Application.c: 130:                     if ( first_num[count]== '=' ){
  2090   00114E  5048               	movf	_count^0,w,c
  2091   001150  0F56               	addlw	low _first_num
  2092   001152  6ED9               	movwf	fsr2l,c
  2093   001154  6ADA               	clrf	fsr2h,c
  2094   001156  0E3D               	movlw	61
  2095   001158  18DE               	xorwf	postinc2,w,c
  2096   00115A  A4D8               	btfss	status,2,c
  2097   00115C  EFB2  F008         	goto	u2911
  2098   001160  EFB4  F008         	goto	u2910
  2099   001164                     u2911:
  2100   001164  EF06  F009         	goto	l3879
  2101   001168                     u2910:
  2102   001168  0E71               	movlw	low _lcd
  2103   00116A  6E0C               	movwf	LCD_8BITS_Send_Char@lcd^0,c
  2104   00116C  5048               	movf	_count^0,w,c
  2105   00116E  0F56               	addlw	low _first_num
  2106   001170  6ED9               	movwf	fsr2l,c
  2107   001172  6ADA               	clrf	fsr2h,c
  2108   001174  50DF               	movf	indf2,w,c
  2109   001176  6E0D               	movwf	LCD_8BITS_Send_Char@data^0,c
  2110   001178  ECC0  F00F         	call	_LCD_8BITS_Send_Char	;wreg free
  2111   00117C                     
  2112                           ;Application.c: 132:                         count = 0 ;
  2113   00117C  0E00               	movlw	0
  2114   00117E  6E48               	movwf	_count^0,c
  2115                           
  2116                           ;Application.c: 133:                         while ( first_num[count] != '='){
  2117   001180  EFD2  F008         	goto	l3857
  2118   001184                     l3853:
  2119   001184  0E71               	movlw	low _lcd
  2120   001186  6E16               	movwf	LCD_8BITS_Send_Number@lcd^0,c
  2121   001188  5048               	movf	_count^0,w,c
  2122   00118A  0F56               	addlw	low _first_num
  2123   00118C  6ED9               	movwf	fsr2l,c
  2124   00118E  6ADA               	clrf	fsr2h,c
  2125   001190  50DF               	movf	indf2,w,c
  2126   001192  6E2D               	movwf	??_Get_First_Number^0,c
  2127   001194  502D               	movf	??_Get_First_Number^0,w,c
  2128   001196  6E17               	movwf	LCD_8BITS_Send_Number@number^0,c
  2129   001198  6A18               	clrf	(LCD_8BITS_Send_Number@number+1)^0,c
  2130   00119A  6A19               	clrf	(LCD_8BITS_Send_Number@number+2)^0,c
  2131   00119C  6A1A               	clrf	(LCD_8BITS_Send_Number@number+3)^0,c
  2132   00119E  EC41  F00C         	call	_LCD_8BITS_Send_Number	;wreg free
  2133   0011A2                     
  2134                           ;Application.c: 135:                             count++;
  2135   0011A2  2A48               	incf	_count^0,f,c
  2136   0011A4                     l3857:
  2137                           
  2138                           ;Application.c: 133:                         while ( first_num[count] != '='){
  2139   0011A4  5048               	movf	_count^0,w,c
  2140   0011A6  0F56               	addlw	low _first_num
  2141   0011A8  6ED9               	movwf	fsr2l,c
  2142   0011AA  6ADA               	clrf	fsr2h,c
  2143   0011AC  0E3D               	movlw	61
  2144   0011AE  18DE               	xorwf	postinc2,w,c
  2145   0011B0  A4D8               	btfss	status,2,c
  2146   0011B2  EFDD  F008         	goto	u2921
  2147   0011B6  EFDF  F008         	goto	u2920
  2148   0011BA                     u2921:
  2149   0011BA  EFC2  F008         	goto	l3853
  2150   0011BE                     u2920:
  2151   0011BE                     
  2152                           ;Application.c: 137:                         for ( count=0 ;count<3 ;count++){
  2153   0011BE  0E00               	movlw	0
  2154   0011C0  6E48               	movwf	_count^0,c
  2155   0011C2                     l3861:
  2156   0011C2  0E02               	movlw	2
  2157   0011C4  6448               	cpfsgt	_count^0,c
  2158   0011C6  EFE7  F008         	goto	u2931
  2159   0011CA  EFE9  F008         	goto	u2930
  2160   0011CE                     u2931:
  2161   0011CE  EFEB  F008         	goto	l3865
  2162   0011D2                     u2930:
  2163   0011D2  EFF3  F008         	goto	l3871
  2164   0011D6                     l3865:
  2165                           
  2166                           ;Application.c: 138:                             first_num[count] = '\0';
  2167   0011D6  5048               	movf	_count^0,w,c
  2168   0011D8  0F56               	addlw	low _first_num
  2169   0011DA  6ED9               	movwf	fsr2l,c
  2170   0011DC  6ADA               	clrf	fsr2h,c
  2171   0011DE  6ADF               	clrf	indf2,c
  2172   0011E0                     
  2173                           ;Application.c: 139:                         }
  2174   0011E0  2A48               	incf	_count^0,f,c
  2175   0011E2  EFE1  F008         	goto	l3861
  2176   0011E6                     l3871:
  2177                           
  2178                           ;Application.c: 140:                         count = 0;
  2179   0011E6  0E00               	movlw	0
  2180   0011E8  6E48               	movwf	_count^0,c
  2181   0011EA                     
  2182                           ;Application.c: 141:                         if( first_num[0] == 'C'){
  2183   0011EA  0E43               	movlw	67
  2184   0011EC  1856               	xorwf	_first_num^0,w,c
  2185   0011EE  A4D8               	btfss	status,2,c
  2186   0011F0  EFFC  F008         	goto	u2941
  2187   0011F4  EFFE  F008         	goto	u2940
  2188   0011F8                     u2941:
  2189   0011F8  EF63  F009         	goto	l949
  2190   0011FC                     u2940:
  2191   0011FC  0E71               	movlw	low _lcd
  2192   0011FE  6E0C               	movwf	LCD_8BITS_Send_Command@lcd^0,c
  2193   001200  0E01               	movlw	1
  2194   001202  6E0D               	movwf	LCD_8BITS_Send_Command@command^0,c
  2195   001204  ECFB  F00F         	call	_LCD_8BITS_Send_Command	;wreg free
  2196   001208  EF7C  F008         	goto	l3827
  2197   00120C                     l3879:
  2198                           
  2199                           ;Application.c: 147:                         if ( first_num[count]== '+' || first_num[co
      +                          unt]== '-' || first_num[count]=='*' || first_num[count]== '/' ){
  2200   00120C  5048               	movf	_count^0,w,c
  2201   00120E  0F56               	addlw	low _first_num
  2202   001210  6ED9               	movwf	fsr2l,c
  2203   001212  6ADA               	clrf	fsr2h,c
  2204   001214  0E2B               	movlw	43
  2205   001216  18DE               	xorwf	postinc2,w,c
  2206   001218  B4D8               	btfsc	status,2,c
  2207   00121A  EF11  F009         	goto	u2951
  2208   00121E  EF13  F009         	goto	u2950
  2209   001222                     u2951:
  2210   001222  EF3A  F009         	goto	l3887
  2211   001226                     u2950:
  2212   001226  5048               	movf	_count^0,w,c
  2213   001228  0F56               	addlw	low _first_num
  2214   00122A  6ED9               	movwf	fsr2l,c
  2215   00122C  6ADA               	clrf	fsr2h,c
  2216   00122E  0E2D               	movlw	45
  2217   001230  18DE               	xorwf	postinc2,w,c
  2218   001232  B4D8               	btfsc	status,2,c
  2219   001234  EF1E  F009         	goto	u2961
  2220   001238  EF20  F009         	goto	u2960
  2221   00123C                     u2961:
  2222   00123C  EF3A  F009         	goto	l3887
  2223   001240                     u2960:
  2224   001240  5048               	movf	_count^0,w,c
  2225   001242  0F56               	addlw	low _first_num
  2226   001244  6ED9               	movwf	fsr2l,c
  2227   001246  6ADA               	clrf	fsr2h,c
  2228   001248  0E2A               	movlw	42
  2229   00124A  18DE               	xorwf	postinc2,w,c
  2230   00124C  B4D8               	btfsc	status,2,c
  2231   00124E  EF2B  F009         	goto	u2971
  2232   001252  EF2D  F009         	goto	u2970
  2233   001256                     u2971:
  2234   001256  EF3A  F009         	goto	l3887
  2235   00125A                     u2970:
  2236   00125A  5048               	movf	_count^0,w,c
  2237   00125C  0F56               	addlw	low _first_num
  2238   00125E  6ED9               	movwf	fsr2l,c
  2239   001260  6ADA               	clrf	fsr2h,c
  2240   001262  0E2F               	movlw	47
  2241   001264  18DE               	xorwf	postinc2,w,c
  2242   001266  A4D8               	btfss	status,2,c
  2243   001268  EF38  F009         	goto	u2981
  2244   00126C  EF3A  F009         	goto	u2980
  2245   001270                     u2981:
  2246   001270  EF51  F009         	goto	l3895
  2247   001274                     u2980:
  2248   001274                     l3887:
  2249   001274  0E71               	movlw	low _lcd
  2250   001276  6E0C               	movwf	LCD_8BITS_Send_Char@lcd^0,c
  2251   001278  5048               	movf	_count^0,w,c
  2252   00127A  0F56               	addlw	low _first_num
  2253   00127C  6ED9               	movwf	fsr2l,c
  2254   00127E  6ADA               	clrf	fsr2h,c
  2255   001280  50DF               	movf	indf2,w,c
  2256   001282  6E0D               	movwf	LCD_8BITS_Send_Char@data^0,c
  2257   001284  ECC0  F00F         	call	_LCD_8BITS_Send_Char	;wreg free
  2258   001288                     
  2259                           ;Application.c: 149:                             operator = first_num[count];
  2260   001288  5048               	movf	_count^0,w,c
  2261   00128A  0F56               	addlw	low _first_num
  2262   00128C  6ED9               	movwf	fsr2l,c
  2263   00128E  6ADA               	clrf	fsr2h,c
  2264   001290  50DF               	movf	indf2,w,c
  2265   001292  6E47               	movwf	_operator^0,c
  2266   001294                     
  2267                           ;Application.c: 150:                             first_num[count] = '\0';
  2268   001294  5048               	movf	_count^0,w,c
  2269   001296  0F56               	addlw	low _first_num
  2270   001298  6ED9               	movwf	fsr2l,c
  2271   00129A  6ADA               	clrf	fsr2h,c
  2272   00129C  6ADF               	clrf	indf2,c
  2273                           
  2274                           ;Application.c: 151:                             break;
  2275   00129E  EF6B  F009         	goto	l968
  2276   0012A2                     l3895:
  2277   0012A2  0E71               	movlw	low _lcd
  2278   0012A4  6E16               	movwf	LCD_8BITS_Send_Number@lcd^0,c
  2279   0012A6  5048               	movf	_count^0,w,c
  2280   0012A8  0F56               	addlw	low _first_num
  2281   0012AA  6ED9               	movwf	fsr2l,c
  2282   0012AC  6ADA               	clrf	fsr2h,c
  2283   0012AE  50DF               	movf	indf2,w,c
  2284   0012B0  6E2D               	movwf	??_Get_First_Number^0,c
  2285   0012B2  502D               	movf	??_Get_First_Number^0,w,c
  2286   0012B4  6E17               	movwf	LCD_8BITS_Send_Number@number^0,c
  2287   0012B6  6A18               	clrf	(LCD_8BITS_Send_Number@number+1)^0,c
  2288   0012B8  6A19               	clrf	(LCD_8BITS_Send_Number@number+2)^0,c
  2289   0012BA  6A1A               	clrf	(LCD_8BITS_Send_Number@number+3)^0,c
  2290   0012BC  EC41  F00C         	call	_LCD_8BITS_Send_Number	;wreg free
  2291   0012C0                     
  2292                           ;Application.c: 155:                             count++;
  2293   0012C0  2A48               	incf	_count^0,f,c
  2294   0012C2  EF63  F009         	goto	l3899
  2295   0012C6                     l949:
  2296   0012C6                     l3899:
  2297                           
  2298                           ;Application.c: 110:     while ( count<=2 ){
  2299   0012C6  0E02               	movlw	2
  2300   0012C8  6448               	cpfsgt	_count^0,c
  2301   0012CA  EF69  F009         	goto	u2991
  2302   0012CE  EF6B  F009         	goto	u2990
  2303   0012D2                     u2991:
  2304   0012D2  EF16  F008         	goto	l3803
  2305   0012D6                     u2990:
  2306   0012D6                     l968:
  2307   0012D6  0012               	return		;funcret
  2308   0012D8                     __end_of_Get_First_Number:
  2309                           	callstack 0
  2310                           
  2311 ;; *************** function _LCD_8BITS_Send_Number *****************
  2312 ;; Defined at:
  2313 ;;		line 272 in file "ECU_Layer/LCD/LCD.c"
  2314 ;; Parameters:    Size  Location     Type
  2315 ;;  lcd             1   21[COMRAM] PTR const struct .
  2316 ;;		 -> lcd(10), 
  2317 ;;  number          4   22[COMRAM] unsigned long 
  2318 ;; Auto vars:     Size  Location     Type
  2319 ;;  str            10   26[COMRAM] unsigned char [10]
  2320 ;;  n               4   38[COMRAM] unsigned long 
  2321 ;;  len             1   43[COMRAM] unsigned char 
  2322 ;;  i               1   42[COMRAM] unsigned char 
  2323 ;;  rem             1   36[COMRAM] unsigned char 
  2324 ;;  RET             1   37[COMRAM] unsigned char 
  2325 ;; Return value:  Size  Location     Type
  2326 ;;                  1    wreg      unsigned char 
  2327 ;; Registers used:
  2328 ;;		wreg, fsr0l, fsr0h, fsr2l, fsr2h, status,2, status,0, tblptrl, tblptrh, tblptru, prodl, prodh, cstack
  2329 ;; Tracked objects:
  2330 ;;		On entry : 0/0
  2331 ;;		On exit  : 0/0
  2332 ;;		Unchanged: 0/0
  2333 ;; Data sizes:     COMRAM   BANK0   BANK1   BANK2   BANK3   BANK4   BANK5   BANK6   BANK7   BANK8   BANK9  BANK10  BANK1
      +1  BANK12  BANK13  BANK14  BANK15
  2334 ;;      Params:         5       0       0       0       0       0       0       0       0       0       0       0       
      +0       0       0       0       0
  2335 ;;      Locals:        18       0       0       0       0       0       0       0       0       0       0       0       
      +0       0       0       0       0
  2336 ;;      Temps:          0       0       0       0       0       0       0       0       0       0       0       0       
      +0       0       0       0       0
  2337 ;;      Totals:        23       0       0       0       0       0       0       0       0       0       0       0       
      +0       0       0       0       0
  2338 ;;Total ram usage:       23 bytes
  2339 ;; Hardware stack levels used: 1
  2340 ;; Hardware stack levels required when called: 6
  2341 ;; This function calls:
  2342 ;;		_LCD_8BITS_Send_String
  2343 ;;		___lldiv
  2344 ;;		___llmod
  2345 ;; This function is called by:
  2346 ;;		_Get_First_Number
  2347 ;;		_Get_Second_Number
  2348 ;; This function uses a non-reentrant model
  2349 ;;
  2350                           
  2351                           	psect	text10
  2352   001882                     __ptext10:
  2353                           	callstack 0
  2354   001882                     _LCD_8BITS_Send_Number:
  2355                           	callstack 23
  2356   001882                     
  2357                           ;ECU_Layer/LCD/LCD.c: 273:     Std_ReturnType RET = (Std_ReturnType)0x01;
  2358   001882  0E01               	movlw	1
  2359   001884  6E26               	movwf	LCD_8BITS_Send_Number@RET^0,c
  2360                           
  2361                           ;ECU_Layer/LCD/LCD.c: 274:     if (((void*)0) == lcd ){
  2362   001886  5016               	movf	LCD_8BITS_Send_Number@lcd^0,w,c
  2363   001888  A4D8               	btfss	status,2,c
  2364   00188A  EF49  F00C         	goto	u2741
  2365   00188E  EF4B  F00C         	goto	u2740
  2366   001892                     u2741:
  2367   001892  EF4F  F00C         	goto	l3737
  2368   001896                     u2740:
  2369   001896                     
  2370                           ;ECU_Layer/LCD/LCD.c: 275:         RET = (Std_ReturnType)0x00;
  2371   001896  0E00               	movlw	0
  2372   001898  6E26               	movwf	LCD_8BITS_Send_Number@RET^0,c
  2373                           
  2374                           ;ECU_Layer/LCD/LCD.c: 276:     }
  2375   00189A  EFD3  F00C         	goto	l3761
  2376   00189E                     l3737:
  2377                           
  2378                           ;ECU_Layer/LCD/LCD.c: 278:         uint8 str[10];;ECU_Layer/LCD/LCD.c: 279:         uint
      +                          8 i,rem,len=0;
  2379   00189E  0E00               	movlw	0
  2380   0018A0  6E2C               	movwf	LCD_8BITS_Send_Number@len^0,c
  2381   0018A2                     
  2382                           ;ECU_Layer/LCD/LCD.c: 280:         uint32 n= number;
  2383   0018A2  C017  F027         	movff	LCD_8BITS_Send_Number@number,LCD_8BITS_Send_Number@n
  2384   0018A6  C018  F028         	movff	LCD_8BITS_Send_Number@number+1,LCD_8BITS_Send_Number@n+1
  2385   0018AA  C019  F029         	movff	LCD_8BITS_Send_Number@number+2,LCD_8BITS_Send_Number@n+2
  2386   0018AE  C01A  F02A         	movff	LCD_8BITS_Send_Number@number+3,LCD_8BITS_Send_Number@n+3
  2387                           
  2388                           ;ECU_Layer/LCD/LCD.c: 281:         while(n != 0)
  2389   0018B2  EF76  F00C         	goto	l3745
  2390   0018B6                     l3741:
  2391                           
  2392                           ;ECU_Layer/LCD/LCD.c: 282:         {;ECU_Layer/LCD/LCD.c: 283:          len++;
  2393   0018B6  2A2C               	incf	LCD_8BITS_Send_Number@len^0,f,c
  2394   0018B8                     
  2395                           ;ECU_Layer/LCD/LCD.c: 284:          n/= 10;
  2396   0018B8  C027  F002         	movff	LCD_8BITS_Send_Number@n,___lldiv@dividend
  2397   0018BC  C028  F003         	movff	LCD_8BITS_Send_Number@n+1,___lldiv@dividend+1
  2398   0018C0  C029  F004         	movff	LCD_8BITS_Send_Number@n+2,___lldiv@dividend+2
  2399   0018C4  C02A  F005         	movff	LCD_8BITS_Send_Number@n+3,___lldiv@dividend+3
  2400   0018C8  0E0A               	movlw	10
  2401   0018CA  6E06               	movwf	___lldiv@divisor^0,c
  2402   0018CC  0E00               	movlw	0
  2403   0018CE  6E07               	movwf	(___lldiv@divisor+1)^0,c
  2404   0018D0  0E00               	movlw	0
  2405   0018D2  6E08               	movwf	(___lldiv@divisor+2)^0,c
  2406   0018D4  0E00               	movlw	0
  2407   0018D6  6E09               	movwf	(___lldiv@divisor+3)^0,c
  2408   0018D8  ECAB  F00E         	call	___lldiv	;wreg free
  2409   0018DC  C002  F027         	movff	?___lldiv,LCD_8BITS_Send_Number@n
  2410   0018E0  C003  F028         	movff	?___lldiv+1,LCD_8BITS_Send_Number@n+1
  2411   0018E4  C004  F029         	movff	?___lldiv+2,LCD_8BITS_Send_Number@n+2
  2412   0018E8  C005  F02A         	movff	?___lldiv+3,LCD_8BITS_Send_Number@n+3
  2413   0018EC                     l3745:
  2414                           
  2415                           ;ECU_Layer/LCD/LCD.c: 281:         while(n != 0)
  2416   0018EC  5027               	movf	LCD_8BITS_Send_Number@n^0,w,c
  2417   0018EE  1028               	iorwf	(LCD_8BITS_Send_Number@n+1)^0,w,c
  2418   0018F0  1029               	iorwf	(LCD_8BITS_Send_Number@n+2)^0,w,c
  2419   0018F2  102A               	iorwf	(LCD_8BITS_Send_Number@n+3)^0,w,c
  2420   0018F4  A4D8               	btfss	status,2,c
  2421   0018F6  EF7F  F00C         	goto	u2751
  2422   0018FA  EF81  F00C         	goto	u2750
  2423   0018FE                     u2751:
  2424   0018FE  EF5B  F00C         	goto	l3741
  2425   001902                     u2750:
  2426   001902                     
  2427                           ;ECU_Layer/LCD/LCD.c: 286:         for (i=0; i<len ; i++)
  2428   001902  0E00               	movlw	0
  2429   001904  6E2B               	movwf	LCD_8BITS_Send_Number@i^0,c
  2430   001906  EFBE  F00C         	goto	l3755
  2431   00190A                     l3749:
  2432                           
  2433                           ;ECU_Layer/LCD/LCD.c: 287:         {;ECU_Layer/LCD/LCD.c: 288:          rem = number %10
      +                           ;
  2434   00190A  C017  F002         	movff	LCD_8BITS_Send_Number@number,___llmod@dividend
  2435   00190E  C018  F003         	movff	LCD_8BITS_Send_Number@number+1,___llmod@dividend+1
  2436   001912  C019  F004         	movff	LCD_8BITS_Send_Number@number+2,___llmod@dividend+2
  2437   001916  C01A  F005         	movff	LCD_8BITS_Send_Number@number+3,___llmod@dividend+3
  2438   00191A  0E0A               	movlw	10
  2439   00191C  6E06               	movwf	___llmod@divisor^0,c
  2440   00191E  0E00               	movlw	0
  2441   001920  6E07               	movwf	(___llmod@divisor+1)^0,c
  2442   001922  0E00               	movlw	0
  2443   001924  6E08               	movwf	(___llmod@divisor+2)^0,c
  2444   001926  0E00               	movlw	0
  2445   001928  6E09               	movwf	(___llmod@divisor+3)^0,c
  2446   00192A  ECFD  F00E         	call	___llmod	;wreg free
  2447   00192E  5002               	movf	?___llmod^0,w,c
  2448   001930  6E25               	movwf	LCD_8BITS_Send_Number@rem^0,c
  2449                           
  2450                           ;ECU_Layer/LCD/LCD.c: 289:          number = number/10;
  2451   001932  C017  F002         	movff	LCD_8BITS_Send_Number@number,___lldiv@dividend
  2452   001936  C018  F003         	movff	LCD_8BITS_Send_Number@number+1,___lldiv@dividend+1
  2453   00193A  C019  F004         	movff	LCD_8BITS_Send_Number@number+2,___lldiv@dividend+2
  2454   00193E  C01A  F005         	movff	LCD_8BITS_Send_Number@number+3,___lldiv@dividend+3
  2455   001942  0E0A               	movlw	10
  2456   001944  6E06               	movwf	___lldiv@divisor^0,c
  2457   001946  0E00               	movlw	0
  2458   001948  6E07               	movwf	(___lldiv@divisor+1)^0,c
  2459   00194A  0E00               	movlw	0
  2460   00194C  6E08               	movwf	(___lldiv@divisor+2)^0,c
  2461   00194E  0E00               	movlw	0
  2462   001950  6E09               	movwf	(___lldiv@divisor+3)^0,c
  2463   001952  ECAB  F00E         	call	___lldiv	;wreg free
  2464   001956  C002  F017         	movff	?___lldiv,LCD_8BITS_Send_Number@number
  2465   00195A  C003  F018         	movff	?___lldiv+1,LCD_8BITS_Send_Number@number+1
  2466   00195E  C004  F019         	movff	?___lldiv+2,LCD_8BITS_Send_Number@number+2
  2467   001962  C005  F01A         	movff	?___lldiv+3,LCD_8BITS_Send_Number@number+3
  2468   001966                     
  2469                           ;ECU_Layer/LCD/LCD.c: 290:          str[len - (i+1)]= rem+ '0';
  2470   001966  502B               	movf	LCD_8BITS_Send_Number@i^0,w,c
  2471   001968  081B               	sublw	low LCD_8BITS_Send_Number@str
  2472   00196A  242C               	addwf	LCD_8BITS_Send_Number@len^0,w,c
  2473   00196C  6ED9               	movwf	fsr2l,c
  2474   00196E  6ADA               	clrf	fsr2h,c
  2475   001970  0EFF               	movlw	255
  2476   001972  26D9               	addwf	fsr2l,f,c
  2477   001974  5025               	movf	LCD_8BITS_Send_Number@rem^0,w,c
  2478   001976  0F30               	addlw	48
  2479   001978  6EDF               	movwf	indf2,c
  2480   00197A                     
  2481                           ;ECU_Layer/LCD/LCD.c: 291:         }
  2482   00197A  2A2B               	incf	LCD_8BITS_Send_Number@i^0,f,c
  2483   00197C                     l3755:
  2484   00197C  502C               	movf	LCD_8BITS_Send_Number@len^0,w,c
  2485   00197E  5C2B               	subwf	LCD_8BITS_Send_Number@i^0,w,c
  2486   001980  A0D8               	btfss	status,0,c
  2487   001982  EFC5  F00C         	goto	u2761
  2488   001986  EFC7  F00C         	goto	u2760
  2489   00198A                     u2761:
  2490   00198A  EF85  F00C         	goto	l3749
  2491   00198E                     u2760:
  2492   00198E                     
  2493                           ;ECU_Layer/LCD/LCD.c: 292:         str[len]= '\0';
  2494   00198E  502C               	movf	LCD_8BITS_Send_Number@len^0,w,c
  2495   001990  0F1B               	addlw	low LCD_8BITS_Send_Number@str
  2496   001992  6ED9               	movwf	fsr2l,c
  2497   001994  6ADA               	clrf	fsr2h,c
  2498   001996  6ADF               	clrf	indf2,c
  2499   001998                     
  2500                           ;ECU_Layer/LCD/LCD.c: 293:         LCD_8BITS_Send_String(lcd , str);
  2501   001998  C016  F012         	movff	LCD_8BITS_Send_Number@lcd,LCD_8BITS_Send_String@lcd
  2502   00199C  0E1B               	movlw	low LCD_8BITS_Send_Number@str
  2503   00199E  6E13               	movwf	LCD_8BITS_Send_String@string^0,c
  2504   0019A0  6A14               	clrf	(LCD_8BITS_Send_String@string+1)^0,c
  2505   0019A2  EC41  F00F         	call	_LCD_8BITS_Send_String	;wreg free
  2506   0019A6                     l3761:
  2507                           
  2508                           ;ECU_Layer/LCD/LCD.c: 295:     return RET;
  2509   0019A6  5026               	movf	LCD_8BITS_Send_Number@RET^0,w,c
  2510   0019A8  0012               	return		;funcret
  2511   0019AA                     __end_of_LCD_8BITS_Send_Number:
  2512                           	callstack 0
  2513                           
  2514 ;; *************** function ___llmod *****************
  2515 ;; Defined at:
  2516 ;;		line 7 in file "C:\Program Files\Microchip\xc8\v2.45\pic\sources\c99\common\llmod.c"
  2517 ;; Parameters:    Size  Location     Type
  2518 ;;  dividend        4    1[COMRAM] unsigned long 
  2519 ;;  divisor         4    5[COMRAM] unsigned long 
  2520 ;; Auto vars:     Size  Location     Type
  2521 ;;  counter         1    9[COMRAM] unsigned char 
  2522 ;; Return value:  Size  Location     Type
  2523 ;;                  4    1[COMRAM] unsigned long 
  2524 ;; Registers used:
  2525 ;;		wreg, status,2, status,0
  2526 ;; Tracked objects:
  2527 ;;		On entry : 0/0
  2528 ;;		On exit  : 0/0
  2529 ;;		Unchanged: 0/0
  2530 ;; Data sizes:     COMRAM   BANK0   BANK1   BANK2   BANK3   BANK4   BANK5   BANK6   BANK7   BANK8   BANK9  BANK10  BANK1
      +1  BANK12  BANK13  BANK14  BANK15
  2531 ;;      Params:         8       0       0       0       0       0       0       0       0       0       0       0       
      +0       0       0       0       0
  2532 ;;      Locals:         1       0       0       0       0       0       0       0       0       0       0       0       
      +0       0       0       0       0
  2533 ;;      Temps:          0       0       0       0       0       0       0       0       0       0       0       0       
      +0       0       0       0       0
  2534 ;;      Totals:         9       0       0       0       0       0       0       0       0       0       0       0       
      +0       0       0       0       0
  2535 ;;Total ram usage:        9 bytes
  2536 ;; Hardware stack levels used: 1
  2537 ;; Hardware stack levels required when called: 2
  2538 ;; This function calls:
  2539 ;;		Nothing
  2540 ;; This function is called by:
  2541 ;;		_LCD_8BITS_Send_Number
  2542 ;;		_LCD_4BITS_Send_Number
  2543 ;; This function uses a non-reentrant model
  2544 ;;
  2545                           
  2546                           	psect	text11
  2547   001DFA                     __ptext11:
  2548                           	callstack 0
  2549   001DFA                     ___llmod:
  2550                           	callstack 26
  2551   001DFA  5006               	movf	___llmod@divisor^0,w,c
  2552   001DFC  1007               	iorwf	(___llmod@divisor+1)^0,w,c
  2553   001DFE  1008               	iorwf	(___llmod@divisor+2)^0,w,c
  2554   001E00  1009               	iorwf	(___llmod@divisor+3)^0,w,c
  2555   001E02  B4D8               	btfsc	status,2,c
  2556   001E04  EF06  F00F         	goto	u2561
  2557   001E08  EF08  F00F         	goto	u2560
  2558   001E0C                     u2561:
  2559   001E0C  EF38  F00F         	goto	l1411
  2560   001E10                     u2560:
  2561   001E10  0E01               	movlw	1
  2562   001E12  6E0A               	movwf	___llmod@counter^0,c
  2563   001E14  EF12  F00F         	goto	l3601
  2564   001E18                     l3599:
  2565   001E18  90D8               	bcf	status,0,c
  2566   001E1A  3606               	rlcf	___llmod@divisor^0,f,c
  2567   001E1C  3607               	rlcf	(___llmod@divisor+1)^0,f,c
  2568   001E1E  3608               	rlcf	(___llmod@divisor+2)^0,f,c
  2569   001E20  3609               	rlcf	(___llmod@divisor+3)^0,f,c
  2570   001E22  2A0A               	incf	___llmod@counter^0,f,c
  2571   001E24                     l3601:
  2572   001E24  AE09               	btfss	(___llmod@divisor+3)^0,7,c
  2573   001E26  EF17  F00F         	goto	u2571
  2574   001E2A  EF19  F00F         	goto	u2570
  2575   001E2E                     u2571:
  2576   001E2E  EF0C  F00F         	goto	l3599
  2577   001E32                     u2570:
  2578   001E32                     l3603:
  2579   001E32  5006               	movf	___llmod@divisor^0,w,c
  2580   001E34  5C02               	subwf	___llmod@dividend^0,w,c
  2581   001E36  5007               	movf	(___llmod@divisor+1)^0,w,c
  2582   001E38  5803               	subwfb	(___llmod@dividend+1)^0,w,c
  2583   001E3A  5008               	movf	(___llmod@divisor+2)^0,w,c
  2584   001E3C  5804               	subwfb	(___llmod@dividend+2)^0,w,c
  2585   001E3E  5009               	movf	(___llmod@divisor+3)^0,w,c
  2586   001E40  5805               	subwfb	(___llmod@dividend+3)^0,w,c
  2587   001E42  A0D8               	btfss	status,0,c
  2588   001E44  EF26  F00F         	goto	u2581
  2589   001E48  EF28  F00F         	goto	u2580
  2590   001E4C                     u2581:
  2591   001E4C  EF30  F00F         	goto	l3607
  2592   001E50                     u2580:
  2593   001E50  5006               	movf	___llmod@divisor^0,w,c
  2594   001E52  5E02               	subwf	___llmod@dividend^0,f,c
  2595   001E54  5007               	movf	(___llmod@divisor+1)^0,w,c
  2596   001E56  5A03               	subwfb	(___llmod@dividend+1)^0,f,c
  2597   001E58  5008               	movf	(___llmod@divisor+2)^0,w,c
  2598   001E5A  5A04               	subwfb	(___llmod@dividend+2)^0,f,c
  2599   001E5C  5009               	movf	(___llmod@divisor+3)^0,w,c
  2600   001E5E  5A05               	subwfb	(___llmod@dividend+3)^0,f,c
  2601   001E60                     l3607:
  2602   001E60  90D8               	bcf	status,0,c
  2603   001E62  3209               	rrcf	(___llmod@divisor+3)^0,f,c
  2604   001E64  3208               	rrcf	(___llmod@divisor+2)^0,f,c
  2605   001E66  3207               	rrcf	(___llmod@divisor+1)^0,f,c
  2606   001E68  3206               	rrcf	___llmod@divisor^0,f,c
  2607   001E6A  2E0A               	decfsz	___llmod@counter^0,f,c
  2608   001E6C  EF19  F00F         	goto	l3603
  2609   001E70                     l1411:
  2610   001E70  C002  F002         	movff	___llmod@dividend,?___llmod
  2611   001E74  C003  F003         	movff	___llmod@dividend+1,?___llmod+1
  2612   001E78  C004  F004         	movff	___llmod@dividend+2,?___llmod+2
  2613   001E7C  C005  F005         	movff	___llmod@dividend+3,?___llmod+3
  2614   001E80  0012               	return		;funcret
  2615   001E82                     __end_of___llmod:
  2616                           	callstack 0
  2617                           
  2618 ;; *************** function ___lldiv *****************
  2619 ;; Defined at:
  2620 ;;		line 7 in file "C:\Program Files\Microchip\xc8\v2.45\pic\sources\c99\common\__lldiv.c"
  2621 ;; Parameters:    Size  Location     Type
  2622 ;;  dividend        4    1[COMRAM] unsigned long 
  2623 ;;  divisor         4    5[COMRAM] unsigned long 
  2624 ;; Auto vars:     Size  Location     Type
  2625 ;;  quotient        4    9[COMRAM] unsigned long 
  2626 ;;  counter         1   13[COMRAM] unsigned char 
  2627 ;; Return value:  Size  Location     Type
  2628 ;;                  4    1[COMRAM] unsigned long 
  2629 ;; Registers used:
  2630 ;;		wreg, status,2, status,0
  2631 ;; Tracked objects:
  2632 ;;		On entry : 0/0
  2633 ;;		On exit  : 0/0
  2634 ;;		Unchanged: 0/0
  2635 ;; Data sizes:     COMRAM   BANK0   BANK1   BANK2   BANK3   BANK4   BANK5   BANK6   BANK7   BANK8   BANK9  BANK10  BANK1
      +1  BANK12  BANK13  BANK14  BANK15
  2636 ;;      Params:         8       0       0       0       0       0       0       0       0       0       0       0       
      +0       0       0       0       0
  2637 ;;      Locals:         5       0       0       0       0       0       0       0       0       0       0       0       
      +0       0       0       0       0
  2638 ;;      Temps:          0       0       0       0       0       0       0       0       0       0       0       0       
      +0       0       0       0       0
  2639 ;;      Totals:        13       0       0       0       0       0       0       0       0       0       0       0       
      +0       0       0       0       0
  2640 ;;Total ram usage:       13 bytes
  2641 ;; Hardware stack levels used: 1
  2642 ;; Hardware stack levels required when called: 2
  2643 ;; This function calls:
  2644 ;;		Nothing
  2645 ;; This function is called by:
  2646 ;;		_LCD_8BITS_Send_Number
  2647 ;;		_LCD_4BITS_Send_Number
  2648 ;; This function uses a non-reentrant model
  2649 ;;
  2650                           
  2651                           	psect	text12
  2652   001D56                     __ptext12:
  2653                           	callstack 0
  2654   001D56                     ___lldiv:
  2655                           	callstack 26
  2656   001D56  0E00               	movlw	0
  2657   001D58  6E0A               	movwf	___lldiv@quotient^0,c
  2658   001D5A  0E00               	movlw	0
  2659   001D5C  6E0B               	movwf	(___lldiv@quotient+1)^0,c
  2660   001D5E  0E00               	movlw	0
  2661   001D60  6E0C               	movwf	(___lldiv@quotient+2)^0,c
  2662   001D62  0E00               	movlw	0
  2663   001D64  6E0D               	movwf	(___lldiv@quotient+3)^0,c
  2664   001D66  5006               	movf	___lldiv@divisor^0,w,c
  2665   001D68  1007               	iorwf	(___lldiv@divisor+1)^0,w,c
  2666   001D6A  1008               	iorwf	(___lldiv@divisor+2)^0,w,c
  2667   001D6C  1009               	iorwf	(___lldiv@divisor+3)^0,w,c
  2668   001D6E  B4D8               	btfsc	status,2,c
  2669   001D70  EFBC  F00E         	goto	u2531
  2670   001D74  EFBE  F00E         	goto	u2530
  2671   001D78                     u2531:
  2672   001D78  EFF4  F00E         	goto	l1018
  2673   001D7C                     u2530:
  2674   001D7C  0E01               	movlw	1
  2675   001D7E  6E0E               	movwf	___lldiv@counter^0,c
  2676   001D80  EFC8  F00E         	goto	l3581
  2677   001D84                     l3579:
  2678   001D84  90D8               	bcf	status,0,c
  2679   001D86  3606               	rlcf	___lldiv@divisor^0,f,c
  2680   001D88  3607               	rlcf	(___lldiv@divisor+1)^0,f,c
  2681   001D8A  3608               	rlcf	(___lldiv@divisor+2)^0,f,c
  2682   001D8C  3609               	rlcf	(___lldiv@divisor+3)^0,f,c
  2683   001D8E  2A0E               	incf	___lldiv@counter^0,f,c
  2684   001D90                     l3581:
  2685   001D90  AE09               	btfss	(___lldiv@divisor+3)^0,7,c
  2686   001D92  EFCD  F00E         	goto	u2541
  2687   001D96  EFCF  F00E         	goto	u2540
  2688   001D9A                     u2541:
  2689   001D9A  EFC2  F00E         	goto	l3579
  2690   001D9E                     u2540:
  2691   001D9E                     l3583:
  2692   001D9E  90D8               	bcf	status,0,c
  2693   001DA0  360A               	rlcf	___lldiv@quotient^0,f,c
  2694   001DA2  360B               	rlcf	(___lldiv@quotient+1)^0,f,c
  2695   001DA4  360C               	rlcf	(___lldiv@quotient+2)^0,f,c
  2696   001DA6  360D               	rlcf	(___lldiv@quotient+3)^0,f,c
  2697   001DA8  5006               	movf	___lldiv@divisor^0,w,c
  2698   001DAA  5C02               	subwf	___lldiv@dividend^0,w,c
  2699   001DAC  5007               	movf	(___lldiv@divisor+1)^0,w,c
  2700   001DAE  5803               	subwfb	(___lldiv@dividend+1)^0,w,c
  2701   001DB0  5008               	movf	(___lldiv@divisor+2)^0,w,c
  2702   001DB2  5804               	subwfb	(___lldiv@dividend+2)^0,w,c
  2703   001DB4  5009               	movf	(___lldiv@divisor+3)^0,w,c
  2704   001DB6  5805               	subwfb	(___lldiv@dividend+3)^0,w,c
  2705   001DB8  A0D8               	btfss	status,0,c
  2706   001DBA  EFE1  F00E         	goto	u2551
  2707   001DBE  EFE3  F00E         	goto	u2550
  2708   001DC2                     u2551:
  2709   001DC2  EFEC  F00E         	goto	l3591
  2710   001DC6                     u2550:
  2711   001DC6  5006               	movf	___lldiv@divisor^0,w,c
  2712   001DC8  5E02               	subwf	___lldiv@dividend^0,f,c
  2713   001DCA  5007               	movf	(___lldiv@divisor+1)^0,w,c
  2714   001DCC  5A03               	subwfb	(___lldiv@dividend+1)^0,f,c
  2715   001DCE  5008               	movf	(___lldiv@divisor+2)^0,w,c
  2716   001DD0  5A04               	subwfb	(___lldiv@dividend+2)^0,f,c
  2717   001DD2  5009               	movf	(___lldiv@divisor+3)^0,w,c
  2718   001DD4  5A05               	subwfb	(___lldiv@dividend+3)^0,f,c
  2719   001DD6  800A               	bsf	___lldiv@quotient^0,0,c
  2720   001DD8                     l3591:
  2721   001DD8  90D8               	bcf	status,0,c
  2722   001DDA  3209               	rrcf	(___lldiv@divisor+3)^0,f,c
  2723   001DDC  3208               	rrcf	(___lldiv@divisor+2)^0,f,c
  2724   001DDE  3207               	rrcf	(___lldiv@divisor+1)^0,f,c
  2725   001DE0  3206               	rrcf	___lldiv@divisor^0,f,c
  2726   001DE2  2E0E               	decfsz	___lldiv@counter^0,f,c
  2727   001DE4  EFCF  F00E         	goto	l3583
  2728   001DE8                     l1018:
  2729   001DE8  C00A  F002         	movff	___lldiv@quotient,?___lldiv
  2730   001DEC  C00B  F003         	movff	___lldiv@quotient+1,?___lldiv+1
  2731   001DF0  C00C  F004         	movff	___lldiv@quotient+2,?___lldiv+2
  2732   001DF4  C00D  F005         	movff	___lldiv@quotient+3,?___lldiv+3
  2733   001DF8  0012               	return		;funcret
  2734   001DFA                     __end_of___lldiv:
  2735                           	callstack 0
  2736                           
  2737 ;; *************** function _LCD_8BITS_Send_String *****************
  2738 ;; Defined at:
  2739 ;;		line 228 in file "ECU_Layer/LCD/LCD.c"
  2740 ;; Parameters:    Size  Location     Type
  2741 ;;  lcd             1   17[COMRAM] PTR const struct .
  2742 ;;		 -> lcd(10), 
  2743 ;;  string          2   18[COMRAM] PTR unsigned char 
  2744 ;;		 -> STR_5(14), STR_4(14), LCD_8BITS_Send_Number@str(10), LCD_4BITS_Send_Number@str(10), 
  2745 ;; Auto vars:     Size  Location     Type
  2746 ;;  RET             1   20[COMRAM] unsigned char 
  2747 ;; Return value:  Size  Location     Type
  2748 ;;                  1    wreg      unsigned char 
  2749 ;; Registers used:
  2750 ;;		wreg, fsr0l, fsr0h, fsr2l, fsr2h, status,2, status,0, tblptrl, tblptrh, tblptru, prodl, prodh, cstack
  2751 ;; Tracked objects:
  2752 ;;		On entry : 0/0
  2753 ;;		On exit  : 0/0
  2754 ;;		Unchanged: 0/0
  2755 ;; Data sizes:     COMRAM   BANK0   BANK1   BANK2   BANK3   BANK4   BANK5   BANK6   BANK7   BANK8   BANK9  BANK10  BANK1
      +1  BANK12  BANK13  BANK14  BANK15
  2756 ;;      Params:         3       0       0       0       0       0       0       0       0       0       0       0       
      +0       0       0       0       0
  2757 ;;      Locals:         1       0       0       0       0       0       0       0       0       0       0       0       
      +0       0       0       0       0
  2758 ;;      Temps:          0       0       0       0       0       0       0       0       0       0       0       0       
      +0       0       0       0       0
  2759 ;;      Totals:         4       0       0       0       0       0       0       0       0       0       0       0       
      +0       0       0       0       0
  2760 ;;Total ram usage:        4 bytes
  2761 ;; Hardware stack levels used: 1
  2762 ;; Hardware stack levels required when called: 5
  2763 ;; This function calls:
  2764 ;;		_LCD_8BITS_Send_Char
  2765 ;; This function is called by:
  2766 ;;		_LCD_8BITS_Send_Number
  2767 ;;		_Get_First_Number
  2768 ;;		_Get_Second_Number
  2769 ;;		_LCD_4BITS_Send_Number
  2770 ;; This function uses a non-reentrant model
  2771 ;;
  2772                           
  2773                           	psect	text13
  2774   001E82                     __ptext13:
  2775                           	callstack 0
  2776   001E82                     _LCD_8BITS_Send_String:
  2777                           	callstack 24
  2778   001E82                     
  2779                           ;ECU_Layer/LCD/LCD.c: 229:     Std_ReturnType RET = (Std_ReturnType)0x01 ;
  2780   001E82  0E01               	movlw	1
  2781   001E84  6E15               	movwf	LCD_8BITS_Send_String@RET^0,c
  2782                           
  2783                           ;ECU_Layer/LCD/LCD.c: 230:     if ( ((void*)0) == lcd ){
  2784   001E86  5012               	movf	LCD_8BITS_Send_String@lcd^0,w,c
  2785   001E88  A4D8               	btfss	status,2,c
  2786   001E8A  EF49  F00F         	goto	u2491
  2787   001E8E  EF4B  F00F         	goto	u2490
  2788   001E92                     u2491:
  2789   001E92  EF68  F00F         	goto	l3567
  2790   001E96                     u2490:
  2791   001E96                     
  2792                           ;ECU_Layer/LCD/LCD.c: 231:         RET = (Std_ReturnType)0x00;
  2793   001E96  0E00               	movlw	0
  2794   001E98  6E15               	movwf	LCD_8BITS_Send_String@RET^0,c
  2795                           
  2796                           ;ECU_Layer/LCD/LCD.c: 232:     }
  2797   001E9A  EF81  F00F         	goto	l3569
  2798   001E9E                     l3563:
  2799                           
  2800                           ;ECU_Layer/LCD/LCD.c: 235:             RET = LCD_8BITS_Send_Char (lcd , *string++);
  2801   001E9E  C012  F00C         	movff	LCD_8BITS_Send_String@lcd,LCD_8BITS_Send_Char@lcd
  2802   001EA2  C013  FFF6         	movff	LCD_8BITS_Send_String@string,tblptrl
  2803   001EA6  C014  FFF7         	movff	LCD_8BITS_Send_String@string+1,tblptrh
  2804   001EAA  0E00               	movlw	low (__smallconst shr (0+16))
  2805   001EAC  6EF8               	movwf	tblptru,c
  2806   001EAE  0E0F               	movlw	(high __ramtop+-1)
  2807   001EB0  64F7               	cpfsgt	tblptrh,c
  2808   001EB2  D003               	bra	u2507
  2809   001EB4  0008               	tblrd		*
  2810   001EB6  50F5               	movf	tablat,w,c
  2811   001EB8  D005               	bra	u2500
  2812   001EBA                     u2507:
  2813   001EBA  CFF6 FFE9          	movff	tblptrl,fsr0l
  2814   001EBE  CFF7 FFEA          	movff	tblptrh,fsr0h
  2815   001EC2  50EF               	movf	indf0,w,c
  2816   001EC4                     u2500:
  2817   001EC4  6E0D               	movwf	LCD_8BITS_Send_Char@data^0,c
  2818   001EC6  ECC0  F00F         	call	_LCD_8BITS_Send_Char	;wreg free
  2819   001ECA  6E15               	movwf	LCD_8BITS_Send_String@RET^0,c
  2820   001ECC  4A13               	infsnz	LCD_8BITS_Send_String@string^0,f,c
  2821   001ECE  2A14               	incf	(LCD_8BITS_Send_String@string+1)^0,f,c
  2822   001ED0                     l3567:
  2823                           
  2824                           ;ECU_Layer/LCD/LCD.c: 234:         while ( *string != '\0' ){
  2825   001ED0  C013  FFF6         	movff	LCD_8BITS_Send_String@string,tblptrl
  2826   001ED4  C014  FFF7         	movff	LCD_8BITS_Send_String@string+1,tblptrh
  2827   001ED8  0E00               	movlw	low (__smallconst shr (0+16))
  2828   001EDA  6EF8               	movwf	tblptru,c
  2829   001EDC  0E0F               	movlw	(high __ramtop+-1)
  2830   001EDE  64F7               	cpfsgt	tblptrh,c
  2831   001EE0  D003               	bra	u2517
  2832   001EE2  0008               	tblrd		*
  2833   001EE4  50F5               	movf	tablat,w,c
  2834   001EE6  D005               	bra	u2510
  2835   001EE8                     u2517:
  2836   001EE8  CFF6 FFE9          	movff	tblptrl,fsr0l
  2837   001EEC  CFF7 FFEA          	movff	tblptrh,fsr0h
  2838   001EF0  50EF               	movf	indf0,w,c
  2839   001EF2                     u2510:
  2840   001EF2  0900               	iorlw	0
  2841   001EF4  A4D8               	btfss	status,2,c
  2842   001EF6  EF7F  F00F         	goto	u2521
  2843   001EFA  EF81  F00F         	goto	u2520
  2844   001EFE                     u2521:
  2845   001EFE  EF4F  F00F         	goto	l3563
  2846   001F02                     u2520:
  2847   001F02                     l3569:
  2848                           
  2849                           ;ECU_Layer/LCD/LCD.c: 238:     return RET;
  2850   001F02  5015               	movf	LCD_8BITS_Send_String@RET^0,w,c
  2851   001F04  0012               	return		;funcret
  2852   001F06                     __end_of_LCD_8BITS_Send_String:
  2853                           	callstack 0
  2854                           
  2855 ;; *************** function _LCD_8BITS_Send_Char *****************
  2856 ;; Defined at:
  2857 ;;		line 199 in file "ECU_Layer/LCD/LCD.c"
  2858 ;; Parameters:    Size  Location     Type
  2859 ;;  lcd             1   11[COMRAM] PTR const struct .
  2860 ;;		 -> lcd(10), 
  2861 ;;  data            1   12[COMRAM] unsigned char 
  2862 ;; Auto vars:     Size  Location     Type
  2863 ;;  counter         1   16[COMRAM] unsigned char 
  2864 ;;  RET             1   15[COMRAM] unsigned char 
  2865 ;; Return value:  Size  Location     Type
  2866 ;;                  1    wreg      unsigned char 
  2867 ;; Registers used:
  2868 ;;		wreg, fsr2l, fsr2h, status,2, status,0, prodl, prodh, cstack
  2869 ;; Tracked objects:
  2870 ;;		On entry : 0/0
  2871 ;;		On exit  : 0/0
  2872 ;;		Unchanged: 0/0
  2873 ;; Data sizes:     COMRAM   BANK0   BANK1   BANK2   BANK3   BANK4   BANK5   BANK6   BANK7   BANK8   BANK9  BANK10  BANK1
      +1  BANK12  BANK13  BANK14  BANK15
  2874 ;;      Params:         2       0       0       0       0       0       0       0       0       0       0       0       
      +0       0       0       0       0
  2875 ;;      Locals:         2       0       0       0       0       0       0       0       0       0       0       0       
      +0       0       0       0       0
  2876 ;;      Temps:          2       0       0       0       0       0       0       0       0       0       0       0       
      +0       0       0       0       0
  2877 ;;      Totals:         6       0       0       0       0       0       0       0       0       0       0       0       
      +0       0       0       0       0
  2878 ;;Total ram usage:        6 bytes
  2879 ;; Hardware stack levels used: 1
  2880 ;; Hardware stack levels required when called: 4
  2881 ;; This function calls:
  2882 ;;		_GPIO_PIN_Write_Logic
  2883 ;;		_LCD_8BITS_Send_ENABLE
  2884 ;; This function is called by:
  2885 ;;		_LCD_8BITS_Send_String
  2886 ;;		_Get_First_Number
  2887 ;;		_Get_Second_Number
  2888 ;;		_LCD_8BITS_Send_Char_Position
  2889 ;;		_LCD_8BITS_Send_String_Position
  2890 ;;		_LCD_8BITS_Send_Spcial_Char
  2891 ;; This function uses a non-reentrant model
  2892 ;;
  2893                           
  2894                           	psect	text14
  2895   001F80                     __ptext14:
  2896                           	callstack 0
  2897   001F80                     _LCD_8BITS_Send_Char:
  2898                           	callstack 24
  2899   001F80                     
  2900                           ;ECU_Layer/LCD/LCD.c: 201:     uint8 counter = 0;
  2901   001F80  0E00               	movlw	0
  2902   001F82  6E11               	movwf	LCD_8BITS_Send_Char@counter^0,c
  2903                           
  2904                           ;ECU_Layer/LCD/LCD.c: 202:     if ( ((void*)0) == lcd ){
  2905   001F84  500C               	movf	LCD_8BITS_Send_Char@lcd^0,w,c
  2906   001F86  A4D8               	btfss	status,2,c
  2907   001F88  EFC8  F00F         	goto	u2411
  2908   001F8C  EFCA  F00F         	goto	u2410
  2909   001F90                     u2411:
  2910   001F90  EFCE  F00F         	goto	l3523
  2911   001F94                     u2410:
  2912   001F94                     
  2913                           ;ECU_Layer/LCD/LCD.c: 203:         RET = (Std_ReturnType)0x00;
  2914   001F94  0E00               	movlw	0
  2915   001F96  6E10               	movwf	LCD_8BITS_Send_Char@RET^0,c
  2916                           
  2917                           ;ECU_Layer/LCD/LCD.c: 204:     }
  2918   001F98  EFF9  F00F         	goto	l3539
  2919   001F9C                     l3523:
  2920   001F9C  C00C  F002         	movff	LCD_8BITS_Send_Char@lcd,GPIO_PIN_Write_Logic@_pin_config
  2921   001FA0  0E01               	movlw	1
  2922   001FA2  6E03               	movwf	GPIO_PIN_Write_Logic@logic_status^0,c
  2923   001FA4  ECAB  F00B         	call	_GPIO_PIN_Write_Logic	;wreg free
  2924   001FA8                     
  2925                           ;ECU_Layer/LCD/LCD.c: 207:         for (counter=0 ; counter<8 ; counter++){
  2926   001FA8  0E00               	movlw	0
  2927   001FAA  6E11               	movwf	LCD_8BITS_Send_Char@counter^0,c
  2928   001FAC                     l3531:
  2929   001FAC  500C               	movf	LCD_8BITS_Send_Char@lcd^0,w,c
  2930   001FAE  2411               	addwf	LCD_8BITS_Send_Char@counter^0,w,c
  2931   001FB0  0F02               	addlw	2
  2932   001FB2  6E02               	movwf	GPIO_PIN_Write_Logic@_pin_config^0,c
  2933   001FB4  C011  F00E         	movff	LCD_8BITS_Send_Char@counter,??_LCD_8BITS_Send_Char
  2934   001FB8  C00D  F00F         	movff	LCD_8BITS_Send_Char@data,??_LCD_8BITS_Send_Char+1
  2935   001FBC  2A0E               	incf	??_LCD_8BITS_Send_Char^0,f,c
  2936   001FBE  EFE3  F00F         	goto	u2424
  2937   001FC2                     u2425:
  2938   001FC2  90D8               	bcf	status,0,c
  2939   001FC4  320F               	rrcf	(??_LCD_8BITS_Send_Char+1)^0,f,c
  2940   001FC6                     u2424:
  2941   001FC6  2E0E               	decfsz	??_LCD_8BITS_Send_Char^0,f,c
  2942   001FC8  EFE1  F00F         	goto	u2425
  2943   001FCC  500F               	movf	(??_LCD_8BITS_Send_Char+1)^0,w,c
  2944   001FCE  0B01               	andlw	1
  2945   001FD0  6E03               	movwf	GPIO_PIN_Write_Logic@logic_status^0,c
  2946   001FD2  ECAB  F00B         	call	_GPIO_PIN_Write_Logic	;wreg free
  2947   001FD6                     
  2948                           ;ECU_Layer/LCD/LCD.c: 209:         }
  2949   001FD6  2A11               	incf	LCD_8BITS_Send_Char@counter^0,f,c
  2950   001FD8  0E07               	movlw	7
  2951   001FDA  6411               	cpfsgt	LCD_8BITS_Send_Char@counter^0,c
  2952   001FDC  EFF2  F00F         	goto	u2431
  2953   001FE0  EFF4  F00F         	goto	u2430
  2954   001FE4                     u2431:
  2955   001FE4  EFD6  F00F         	goto	l3531
  2956   001FE8                     u2430:
  2957   001FE8                     
  2958                           ;ECU_Layer/LCD/LCD.c: 210:         RET = LCD_8BITS_Send_ENABLE ((lcd));
  2959   001FE8  C00C  F00A         	movff	LCD_8BITS_Send_Char@lcd,LCD_8BITS_Send_ENABLE@lcd
  2960   001FEC  EC09  F011         	call	_LCD_8BITS_Send_ENABLE	;wreg free
  2961   001FF0  6E10               	movwf	LCD_8BITS_Send_Char@RET^0,c
  2962   001FF2                     l3539:
  2963                           
  2964                           ;ECU_Layer/LCD/LCD.c: 212:     return RET;
  2965   001FF2  5010               	movf	LCD_8BITS_Send_Char@RET^0,w,c
  2966   001FF4  0012               	return		;funcret
  2967   001FF6                     __end_of_LCD_8BITS_Send_Char:
  2968                           	callstack 0
  2969                           
  2970 ;; *************** function _LCD_8BITS_Send_Command *****************
  2971 ;; Defined at:
  2972 ;;		line 183 in file "ECU_Layer/LCD/LCD.c"
  2973 ;; Parameters:    Size  Location     Type
  2974 ;;  lcd             1   11[COMRAM] PTR const struct .
  2975 ;;		 -> lcd(10), 
  2976 ;;  command         1   12[COMRAM] unsigned char 
  2977 ;; Auto vars:     Size  Location     Type
  2978 ;;  counter         1   16[COMRAM] unsigned char 
  2979 ;;  RET             1   15[COMRAM] unsigned char 
  2980 ;; Return value:  Size  Location     Type
  2981 ;;                  1    wreg      unsigned char 
  2982 ;; Registers used:
  2983 ;;		wreg, fsr2l, fsr2h, status,2, status,0, prodl, prodh, cstack
  2984 ;; Tracked objects:
  2985 ;;		On entry : 0/0
  2986 ;;		On exit  : 0/0
  2987 ;;		Unchanged: 0/0
  2988 ;; Data sizes:     COMRAM   BANK0   BANK1   BANK2   BANK3   BANK4   BANK5   BANK6   BANK7   BANK8   BANK9  BANK10  BANK1
      +1  BANK12  BANK13  BANK14  BANK15
  2989 ;;      Params:         2       0       0       0       0       0       0       0       0       0       0       0       
      +0       0       0       0       0
  2990 ;;      Locals:         2       0       0       0       0       0       0       0       0       0       0       0       
      +0       0       0       0       0
  2991 ;;      Temps:          2       0       0       0       0       0       0       0       0       0       0       0       
      +0       0       0       0       0
  2992 ;;      Totals:         6       0       0       0       0       0       0       0       0       0       0       0       
      +0       0       0       0       0
  2993 ;;Total ram usage:        6 bytes
  2994 ;; Hardware stack levels used: 1
  2995 ;; Hardware stack levels required when called: 4
  2996 ;; This function calls:
  2997 ;;		_GPIO_PIN_Write_Logic
  2998 ;;		_LCD_8BITS_Send_ENABLE
  2999 ;; This function is called by:
  3000 ;;		_LCD_8BITS_Init
  3001 ;;		_Get_First_Number
  3002 ;;		_Get_Second_Number
  3003 ;;		_LCD_8BITS_Send_Spcial_Char
  3004 ;;		_LCD_8BITS_Set_CURSOR
  3005 ;; This function uses a non-reentrant model
  3006 ;;
  3007                           
  3008                           	psect	text15
  3009   001FF6                     __ptext15:
  3010                           	callstack 0
  3011   001FF6                     _LCD_8BITS_Send_Command:
  3012                           	callstack 25
  3013   001FF6                     
  3014                           ;ECU_Layer/LCD/LCD.c: 185:     uint8 counter = 0 ;
  3015   001FF6  0E00               	movlw	0
  3016   001FF8  6E11               	movwf	LCD_8BITS_Send_Command@counter^0,c
  3017                           
  3018                           ;ECU_Layer/LCD/LCD.c: 186:     if ( ((void*)0) == lcd ){
  3019   001FFA  500C               	movf	LCD_8BITS_Send_Command@lcd^0,w,c
  3020   001FFC  A4D8               	btfss	status,2,c
  3021   001FFE  EF03  F010         	goto	u2711
  3022   002002  EF05  F010         	goto	u2710
  3023   002006                     u2711:
  3024   002006  EF09  F010         	goto	l3713
  3025   00200A                     u2710:
  3026   00200A                     
  3027                           ;ECU_Layer/LCD/LCD.c: 187:         RET = (Std_ReturnType)0x00;
  3028   00200A  0E00               	movlw	0
  3029   00200C  6E10               	movwf	LCD_8BITS_Send_Command@RET^0,c
  3030                           
  3031                           ;ECU_Layer/LCD/LCD.c: 188:     }
  3032   00200E  EF34  F010         	goto	l3729
  3033   002012                     l3713:
  3034   002012  C00C  F002         	movff	LCD_8BITS_Send_Command@lcd,GPIO_PIN_Write_Logic@_pin_config
  3035   002016  0E00               	movlw	0
  3036   002018  6E03               	movwf	GPIO_PIN_Write_Logic@logic_status^0,c
  3037   00201A  ECAB  F00B         	call	_GPIO_PIN_Write_Logic	;wreg free
  3038   00201E                     
  3039                           ;ECU_Layer/LCD/LCD.c: 191:         for (counter=0 ; counter<8 ; counter++){
  3040   00201E  0E00               	movlw	0
  3041   002020  6E11               	movwf	LCD_8BITS_Send_Command@counter^0,c
  3042   002022                     l3721:
  3043   002022  500C               	movf	LCD_8BITS_Send_Command@lcd^0,w,c
  3044   002024  2411               	addwf	LCD_8BITS_Send_Command@counter^0,w,c
  3045   002026  0F02               	addlw	2
  3046   002028  6E02               	movwf	GPIO_PIN_Write_Logic@_pin_config^0,c
  3047   00202A  C011  F00E         	movff	LCD_8BITS_Send_Command@counter,??_LCD_8BITS_Send_Command
  3048   00202E  C00D  F00F         	movff	LCD_8BITS_Send_Command@command,??_LCD_8BITS_Send_Command+1
  3049   002032  2A0E               	incf	??_LCD_8BITS_Send_Command^0,f,c
  3050   002034  EF1E  F010         	goto	u2724
  3051   002038                     u2725:
  3052   002038  90D8               	bcf	status,0,c
  3053   00203A  320F               	rrcf	(??_LCD_8BITS_Send_Command+1)^0,f,c
  3054   00203C                     u2724:
  3055   00203C  2E0E               	decfsz	??_LCD_8BITS_Send_Command^0,f,c
  3056   00203E  EF1C  F010         	goto	u2725
  3057   002042  500F               	movf	(??_LCD_8BITS_Send_Command+1)^0,w,c
  3058   002044  0B01               	andlw	1
  3059   002046  6E03               	movwf	GPIO_PIN_Write_Logic@logic_status^0,c
  3060   002048  ECAB  F00B         	call	_GPIO_PIN_Write_Logic	;wreg free
  3061   00204C                     
  3062                           ;ECU_Layer/LCD/LCD.c: 193:         }
  3063   00204C  2A11               	incf	LCD_8BITS_Send_Command@counter^0,f,c
  3064   00204E  0E07               	movlw	7
  3065   002050  6411               	cpfsgt	LCD_8BITS_Send_Command@counter^0,c
  3066   002052  EF2D  F010         	goto	u2731
  3067   002056  EF2F  F010         	goto	u2730
  3068   00205A                     u2731:
  3069   00205A  EF11  F010         	goto	l3721
  3070   00205E                     u2730:
  3071   00205E                     
  3072                           ;ECU_Layer/LCD/LCD.c: 194:         RET = LCD_8BITS_Send_ENABLE ((lcd));
  3073   00205E  C00C  F00A         	movff	LCD_8BITS_Send_Command@lcd,LCD_8BITS_Send_ENABLE@lcd
  3074   002062  EC09  F011         	call	_LCD_8BITS_Send_ENABLE	;wreg free
  3075   002066  6E10               	movwf	LCD_8BITS_Send_Command@RET^0,c
  3076   002068                     l3729:
  3077                           
  3078                           ;ECU_Layer/LCD/LCD.c: 196:     return RET;
  3079   002068  5010               	movf	LCD_8BITS_Send_Command@RET^0,w,c
  3080   00206A  0012               	return		;funcret
  3081   00206C                     __end_of_LCD_8BITS_Send_Command:
  3082                           	callstack 0
  3083                           
  3084 ;; *************** function _LCD_8BITS_Send_ENABLE *****************
  3085 ;; Defined at:
  3086 ;;		line 358 in file "ECU_Layer/LCD/LCD.c"
  3087 ;; Parameters:    Size  Location     Type
  3088 ;;  lcd             1    9[COMRAM] PTR const struct .
  3089 ;;		 -> lcd(10), 
  3090 ;; Auto vars:     Size  Location     Type
  3091 ;;  RET             1   10[COMRAM] unsigned char 
  3092 ;; Return value:  Size  Location     Type
  3093 ;;                  1    wreg      unsigned char 
  3094 ;; Registers used:
  3095 ;;		wreg, fsr2l, fsr2h, status,2, status,0, prodl, prodh, cstack
  3096 ;; Tracked objects:
  3097 ;;		On entry : 0/0
  3098 ;;		On exit  : 0/0
  3099 ;;		Unchanged: 0/0
  3100 ;; Data sizes:     COMRAM   BANK0   BANK1   BANK2   BANK3   BANK4   BANK5   BANK6   BANK7   BANK8   BANK9  BANK10  BANK1
      +1  BANK12  BANK13  BANK14  BANK15
  3101 ;;      Params:         1       0       0       0       0       0       0       0       0       0       0       0       
      +0       0       0       0       0
  3102 ;;      Locals:         1       0       0       0       0       0       0       0       0       0       0       0       
      +0       0       0       0       0
  3103 ;;      Temps:          0       0       0       0       0       0       0       0       0       0       0       0       
      +0       0       0       0       0
  3104 ;;      Totals:         2       0       0       0       0       0       0       0       0       0       0       0       
      +0       0       0       0       0
  3105 ;;Total ram usage:        2 bytes
  3106 ;; Hardware stack levels used: 1
  3107 ;; Hardware stack levels required when called: 3
  3108 ;; This function calls:
  3109 ;;		_GPIO_PIN_Write_Logic
  3110 ;; This function is called by:
  3111 ;;		_LCD_8BITS_Send_Command
  3112 ;;		_LCD_8BITS_Send_Char
  3113 ;; This function uses a non-reentrant model
  3114 ;;
  3115                           
  3116                           	psect	text16
  3117   002212                     __ptext16:
  3118                           	callstack 0
  3119   002212                     _LCD_8BITS_Send_ENABLE:
  3120                           	callstack 25
  3121   002212  280A               	incf	LCD_8BITS_Send_ENABLE@lcd^0,w,c
  3122   002214  6E02               	movwf	GPIO_PIN_Write_Logic@_pin_config^0,c
  3123   002216  0E01               	movlw	1
  3124   002218  6E03               	movwf	GPIO_PIN_Write_Logic@logic_status^0,c
  3125   00221A  ECAB  F00B         	call	_GPIO_PIN_Write_Logic	;wreg free
  3126   00221E                     
  3127                           ;ECU_Layer/LCD/LCD.c: 361:     _delay((unsigned long)((5)*(8000000UL/4000000.0)));
  3128   00221E  0E03               	movlw	3
  3129   002220                     u3747:
  3130   002220  2EE8               	decfsz	wreg,f,c
  3131   002222  D7FE               	bra	u3747
  3132   002224  0000               	nop	
  3133   002226                     
  3134                           ;ECU_Layer/LCD/LCD.c: 362:     RET = GPIO_PIN_Write_Logic(&(lcd->En) , LOW);
  3135   002226  280A               	incf	LCD_8BITS_Send_ENABLE@lcd^0,w,c
  3136   002228  6E02               	movwf	GPIO_PIN_Write_Logic@_pin_config^0,c
  3137   00222A  0E00               	movlw	0
  3138   00222C  6E03               	movwf	GPIO_PIN_Write_Logic@logic_status^0,c
  3139   00222E  ECAB  F00B         	call	_GPIO_PIN_Write_Logic	;wreg free
  3140   002232  6E0B               	movwf	LCD_8BITS_Send_ENABLE@RET^0,c
  3141   002234                     
  3142                           ;ECU_Layer/LCD/LCD.c: 363:     return RET;
  3143   002234  500B               	movf	LCD_8BITS_Send_ENABLE@RET^0,w,c
  3144   002236  0012               	return		;funcret
  3145   002238                     __end_of_LCD_8BITS_Send_ENABLE:
  3146                           	callstack 0
  3147                           
  3148 ;; *************** function _KEYPAD_Get_Number *****************
  3149 ;; Defined at:
  3150 ;;		line 36 in file "ECU_Layer/KeyPad/Keypad.c"
  3151 ;; Parameters:    Size  Location     Type
  3152 ;;  keypad          1    9[COMRAM] PTR const struct .
  3153 ;;		 -> keypad(8), 
  3154 ;;  number          1   10[COMRAM] PTR unsigned char 
  3155 ;;		 -> second_num(3), first_num(3), 
  3156 ;; Auto vars:     Size  Location     Type
  3157 ;;  logic           1   13[COMRAM] unsigned char 
  3158 ;;  column_count    1   16[COMRAM] unsigned char 
  3159 ;;  row_counter     1   15[COMRAM] unsigned char 
  3160 ;;  counter         1   14[COMRAM] unsigned char 
  3161 ;;  RET             1   12[COMRAM] unsigned char 
  3162 ;; Return value:  Size  Location     Type
  3163 ;;                  1    wreg      unsigned char 
  3164 ;; Registers used:
  3165 ;;		wreg, fsr1l, fsr1h, fsr2l, fsr2h, status,2, status,0, tblptrl, tblptrh, tblptru, prodl, prodh, cstack
  3166 ;; Tracked objects:
  3167 ;;		On entry : 0/0
  3168 ;;		On exit  : 0/0
  3169 ;;		Unchanged: 0/0
  3170 ;; Data sizes:     COMRAM   BANK0   BANK1   BANK2   BANK3   BANK4   BANK5   BANK6   BANK7   BANK8   BANK9  BANK10  BANK1
      +1  BANK12  BANK13  BANK14  BANK15
  3171 ;;      Params:         2       0       0       0       0       0       0       0       0       0       0       0       
      +0       0       0       0       0
  3172 ;;      Locals:         5       0       0       0       0       0       0       0       0       0       0       0       
      +0       0       0       0       0
  3173 ;;      Temps:          1       0       0       0       0       0       0       0       0       0       0       0       
      +0       0       0       0       0
  3174 ;;      Totals:         8       0       0       0       0       0       0       0       0       0       0       0       
      +0       0       0       0       0
  3175 ;;Total ram usage:        8 bytes
  3176 ;; Hardware stack levels used: 1
  3177 ;; Hardware stack levels required when called: 3
  3178 ;; This function calls:
  3179 ;;		_GPIO_PIN_Read_Logic
  3180 ;;		_GPIO_PIN_Write_Logic
  3181 ;; This function is called by:
  3182 ;;		_Get_First_Number
  3183 ;;		_Get_Second_Number
  3184 ;; This function uses a non-reentrant model
  3185 ;;
  3186                           
  3187                           	psect	text17
  3188   001AD0                     __ptext17:
  3189                           	callstack 0
  3190   001AD0                     _KEYPAD_Get_Number:
  3191                           	callstack 26
  3192   001AD0                     
  3193                           ;ECU_Layer/KeyPad/Keypad.c: 38:     uint8 row_counter=0 , column_counter=0 , counter=0 ;
  3194   001AD0  0E00               	movlw	0
  3195   001AD2  6E10               	movwf	KEYPAD_Get_Number@row_counter^0,c
  3196   001AD4  0E00               	movlw	0
  3197   001AD6  6E11               	movwf	KEYPAD_Get_Number@column_counter^0,c
  3198   001AD8  0E00               	movlw	0
  3199   001ADA  6E0F               	movwf	KEYPAD_Get_Number@counter^0,c
  3200                           
  3201                           ;ECU_Layer/KeyPad/Keypad.c: 39:     if ( ((void*)0) == keypad || ((void*)0) == number){
  3202   001ADC  500A               	movf	KEYPAD_Get_Number@keypad^0,w,c
  3203   001ADE  B4D8               	btfsc	status,2,c
  3204   001AE0  EF74  F00D         	goto	u2651
  3205   001AE4  EF76  F00D         	goto	u2650
  3206   001AE8                     u2651:
  3207   001AE8  EF7E  F00D         	goto	l3637
  3208   001AEC                     u2650:
  3209   001AEC  500B               	movf	KEYPAD_Get_Number@number^0,w,c
  3210   001AEE  A4D8               	btfss	status,2,c
  3211   001AF0  EF7C  F00D         	goto	u2661
  3212   001AF4  EF7E  F00D         	goto	u2660
  3213   001AF8                     u2661:
  3214   001AF8  EF82  F00D         	goto	l3639
  3215   001AFC                     u2660:
  3216   001AFC                     l3637:
  3217                           
  3218                           ;ECU_Layer/KeyPad/Keypad.c: 40:         RET = (Std_ReturnType)0x00;
  3219   001AFC  0E00               	movlw	0
  3220   001AFE  6E0D               	movwf	KEYPAD_Get_Number@RET^0,c
  3221                           
  3222                           ;ECU_Layer/KeyPad/Keypad.c: 41:     }
  3223   001B00  EFDC  F00D         	goto	l3681
  3224   001B04                     l3639:
  3225                           
  3226                           ;ECU_Layer/KeyPad/Keypad.c: 43:         for ( row_counter=0 ; row_counter<4 ; row_counte
      +                          r++){
  3227   001B04  0E00               	movlw	0
  3228   001B06  6E10               	movwf	KEYPAD_Get_Number@row_counter^0,c
  3229   001B08                     l3645:
  3230                           
  3231                           ;ECU_Layer/KeyPad/Keypad.c: 44:             uint8 logic=0;
  3232   001B08  0E00               	movlw	0
  3233   001B0A  6E0E               	movwf	KEYPAD_Get_Number@logic^0,c
  3234                           
  3235                           ;ECU_Layer/KeyPad/Keypad.c: 45:             for (counter=0 ; counter<4 ; counter++){
  3236   001B0C  0E00               	movlw	0
  3237   001B0E  6E0F               	movwf	KEYPAD_Get_Number@counter^0,c
  3238   001B10                     l3651:
  3239   001B10  500A               	movf	KEYPAD_Get_Number@keypad^0,w,c
  3240   001B12  240F               	addwf	KEYPAD_Get_Number@counter^0,w,c
  3241   001B14  6E02               	movwf	GPIO_PIN_Write_Logic@_pin_config^0,c
  3242   001B16  0E00               	movlw	0
  3243   001B18  6E03               	movwf	GPIO_PIN_Write_Logic@logic_status^0,c
  3244   001B1A  ECAB  F00B         	call	_GPIO_PIN_Write_Logic	;wreg free
  3245   001B1E                     
  3246                           ;ECU_Layer/KeyPad/Keypad.c: 47:             }
  3247   001B1E  2A0F               	incf	KEYPAD_Get_Number@counter^0,f,c
  3248   001B20  0E03               	movlw	3
  3249   001B22  640F               	cpfsgt	KEYPAD_Get_Number@counter^0,c
  3250   001B24  EF96  F00D         	goto	u2671
  3251   001B28  EF98  F00D         	goto	u2670
  3252   001B2C                     u2671:
  3253   001B2C  EF88  F00D         	goto	l3651
  3254   001B30                     u2670:
  3255   001B30  500A               	movf	KEYPAD_Get_Number@keypad^0,w,c
  3256   001B32  2410               	addwf	KEYPAD_Get_Number@row_counter^0,w,c
  3257   001B34  6E02               	movwf	GPIO_PIN_Write_Logic@_pin_config^0,c
  3258   001B36  0E01               	movlw	1
  3259   001B38  6E03               	movwf	GPIO_PIN_Write_Logic@logic_status^0,c
  3260   001B3A  ECAB  F00B         	call	_GPIO_PIN_Write_Logic	;wreg free
  3261   001B3E                     
  3262                           ;ECU_Layer/KeyPad/Keypad.c: 49:             _delay((unsigned long)((80)*(8000000UL/4000.
      +                          0)));
  3263   001B3E  0ED0               	movlw	208
  3264   001B40  6E0C               	movwf	??_KEYPAD_Get_Number^0,c
  3265   001B42  0ECA               	movlw	202
  3266   001B44                     u3757:
  3267   001B44  2EE8               	decfsz	wreg,f,c
  3268   001B46  D7FE               	bra	u3757
  3269   001B48  2E0C               	decfsz	??_KEYPAD_Get_Number^0,f,c
  3270   001B4A  D7FC               	bra	u3757
  3271   001B4C                     
  3272                           ;ECU_Layer/KeyPad/Keypad.c: 50:             for (column_counter=0 ; column_counter<4 ; c
      +                          olumn_counter++){
  3273   001B4C  0E00               	movlw	0
  3274   001B4E  6E11               	movwf	KEYPAD_Get_Number@column_counter^0,c
  3275   001B50                     l3667:
  3276                           
  3277                           ;ECU_Layer/KeyPad/Keypad.c: 51:                 RET = GPIO_PIN_Read_Logic (&(keypad->col
      +                          umn_pin[column_counter]) , &logic);
  3278   001B50  500A               	movf	KEYPAD_Get_Number@keypad^0,w,c
  3279   001B52  2411               	addwf	KEYPAD_Get_Number@column_counter^0,w,c
  3280   001B54  0F04               	addlw	4
  3281   001B56  6E02               	movwf	GPIO_PIN_Read_Logic@_pin_config^0,c
  3282   001B58  0E0E               	movlw	low KEYPAD_Get_Number@logic
  3283   001B5A  6E03               	movwf	GPIO_PIN_Read_Logic@logic_status^0,c
  3284   001B5C  EC4B  F00E         	call	_GPIO_PIN_Read_Logic	;wreg free
  3285   001B60  6E0D               	movwf	KEYPAD_Get_Number@RET^0,c
  3286   001B62                     
  3287                           ;ECU_Layer/KeyPad/Keypad.c: 52:                 if ( logic == 1 ){
  3288   001B62  040E               	decf	KEYPAD_Get_Number@logic^0,w,c
  3289   001B64  A4D8               	btfss	status,2,c
  3290   001B66  EFB7  F00D         	goto	u2681
  3291   001B6A  EFB9  F00D         	goto	u2680
  3292   001B6E                     u2681:
  3293   001B6E  EFCA  F00D         	goto	l3673
  3294   001B72                     u2680:
  3295   001B72                     
  3296                           ;ECU_Layer/KeyPad/Keypad.c: 53:                     *number = Keypad_Elements[row_counte
      +                          r][column_counter] ;
  3297   001B72  5010               	movf	KEYPAD_Get_Number@row_counter^0,w,c
  3298   001B74  0D04               	mullw	4
  3299   001B76  50F3               	movf	243,w,c
  3300   001B78  0F01               	addlw	low _Keypad_Elements
  3301   001B7A  2411               	addwf	KEYPAD_Get_Number@column_counter^0,w,c
  3302   001B7C  6E0C               	movwf	??_KEYPAD_Get_Number^0,c
  3303   001B7E  C00C  FFF6         	movff	??_KEYPAD_Get_Number,tblptrl
  3304   001B82                     	if	1	;There is more than 1 active tblptr byte
  3305   001B82  0E10               	movlw	high __smallconst
  3306   001B84  6EF7               	movwf	tblptrh,c
  3307   001B86                     	endif
  3308   001B86                     	if	1	;Program memory is < 0x10000, tblptru is always zero
  3309   001B86  6AF8               	clrf	tblptru,c
  3310   001B88                     	endif
  3311   001B88                     	if	0	;tblptru may be non-zero
  3312   001B88                     	endif
  3313   001B88  500B               	movf	KEYPAD_Get_Number@number^0,w,c
  3314   001B8A  6ED9               	movwf	fsr2l,c
  3315   001B8C  6ADA               	clrf	fsr2h,c
  3316   001B8E  0008               	tblrd		*
  3317   001B90  CFF5 FFDF          	movff	tablat,indf2
  3318   001B94                     l3673:
  3319                           
  3320                           ;ECU_Layer/KeyPad/Keypad.c: 55:             }
  3321   001B94  2A11               	incf	KEYPAD_Get_Number@column_counter^0,f,c
  3322   001B96  0E03               	movlw	3
  3323   001B98  6411               	cpfsgt	KEYPAD_Get_Number@column_counter^0,c
  3324   001B9A  EFD1  F00D         	goto	u2691
  3325   001B9E  EFD3  F00D         	goto	u2690
  3326   001BA2                     u2691:
  3327   001BA2  EFA8  F00D         	goto	l3667
  3328   001BA6                     u2690:
  3329   001BA6                     
  3330                           ;ECU_Layer/KeyPad/Keypad.c: 56:         }
  3331   001BA6  2A10               	incf	KEYPAD_Get_Number@row_counter^0,f,c
  3332   001BA8  0E03               	movlw	3
  3333   001BAA  6410               	cpfsgt	KEYPAD_Get_Number@row_counter^0,c
  3334   001BAC  EFDA  F00D         	goto	u2701
  3335   001BB0  EFDC  F00D         	goto	u2700
  3336   001BB4                     u2701:
  3337   001BB4  EF84  F00D         	goto	l3645
  3338   001BB8                     u2700:
  3339   001BB8                     l3681:
  3340                           
  3341                           ;ECU_Layer/KeyPad/Keypad.c: 58:     return RET;
  3342   001BB8  500D               	movf	KEYPAD_Get_Number@RET^0,w,c
  3343   001BBA  0012               	return		;funcret
  3344   001BBC                     __end_of_KEYPAD_Get_Number:
  3345                           	callstack 0
  3346                           
  3347 ;; *************** function _GPIO_PIN_Write_Logic *****************
  3348 ;; Defined at:
  3349 ;;		line 62 in file "MCAL_Layer/GPIO/HAL_GPIO.c"
  3350 ;; Parameters:    Size  Location     Type
  3351 ;;  _pin_config     1    1[COMRAM] PTR const struct .
  3352 ;;		 -> lcd$data_pins(8), lcd(10), keypad$row_pin(4), keypad(8), 
  3353 ;;		 -> RELAY_Turn_OFF@relay_info(1), RELAY_Turn_ON@relay_info(1), RELAY_Init@relay_info(1), LED_Turn_Off@led_config(1),
      + 
  3354 ;;		 -> LED_Turn_On@led_config(1), LED_Init@led_config(1), 
  3355 ;;  logic_status    1    2[COMRAM] enum E2657
  3356 ;; Auto vars:     Size  Location     Type
  3357 ;;  RET             1    8[COMRAM] unsigned char 
  3358 ;; Return value:  Size  Location     Type
  3359 ;;                  1    wreg      unsigned char 
  3360 ;; Registers used:
  3361 ;;		wreg, fsr2l, fsr2h, status,2, status,0, prodl, prodh
  3362 ;; Tracked objects:
  3363 ;;		On entry : 0/0
  3364 ;;		On exit  : 0/0
  3365 ;;		Unchanged: 0/0
  3366 ;; Data sizes:     COMRAM   BANK0   BANK1   BANK2   BANK3   BANK4   BANK5   BANK6   BANK7   BANK8   BANK9  BANK10  BANK1
      +1  BANK12  BANK13  BANK14  BANK15
  3367 ;;      Params:         2       0       0       0       0       0       0       0       0       0       0       0       
      +0       0       0       0       0
  3368 ;;      Locals:         1       0       0       0       0       0       0       0       0       0       0       0       
      +0       0       0       0       0
  3369 ;;      Temps:          5       0       0       0       0       0       0       0       0       0       0       0       
      +0       0       0       0       0
  3370 ;;      Totals:         8       0       0       0       0       0       0       0       0       0       0       0       
      +0       0       0       0       0
  3371 ;;Total ram usage:        8 bytes
  3372 ;; Hardware stack levels used: 1
  3373 ;; Hardware stack levels required when called: 2
  3374 ;; This function calls:
  3375 ;;		Nothing
  3376 ;; This function is called by:
  3377 ;;		_KEYPAD_Get_Number
  3378 ;;		_LCD_4BITS_Send_Command
  3379 ;;		_LCD_8BITS_Send_Command
  3380 ;;		_LCD_8BITS_Send_Char
  3381 ;;		_LCD_4BITS_Send_Data
  3382 ;;		_LCD_4BITS_Send_ENABLE
  3383 ;;		_LCD_8BITS_Send_ENABLE
  3384 ;;		_GPIO_PIN_Init
  3385 ;;		_DC_MOTOR_Move_Right
  3386 ;;		_DC_MOTOR_Move_Left
  3387 ;;		_DC_MOTOR_Stop
  3388 ;;		_LCD_4BITS_Send_Char
  3389 ;;		_LED_Turn_On
  3390 ;;		_LED_Turn_Off
  3391 ;;		_RELAY_Turn_ON
  3392 ;;		_RELAY_Turn_OFF
  3393 ;;		_SEGMENT_Write_Number
  3394 ;; This function uses a non-reentrant model
  3395 ;;
  3396                           
  3397                           	psect	text18
  3398   001756                     __ptext18:
  3399                           	callstack 0
  3400   001756                     _GPIO_PIN_Write_Logic:
  3401                           	callstack 25
  3402   001756                     
  3403                           ;MCAL_Layer/GPIO/HAL_GPIO.c: 63:     Std_ReturnType RET = (Std_ReturnType)0x01;
  3404   001756  0E01               	movlw	1
  3405   001758  6E09               	movwf	GPIO_PIN_Write_Logic@RET^0,c
  3406                           
  3407                           ;MCAL_Layer/GPIO/HAL_GPIO.c: 64:     if ( ((void*)0) == _pin_config ||(_pin_config->PIN_
      +                          NUMBER)>8 -1 || (_pin_config->PORT)>5 -1){
  3408   00175A  5002               	movf	GPIO_PIN_Write_Logic@_pin_config^0,w,c
  3409   00175C  B4D8               	btfsc	status,2,c
  3410   00175E  EFB3  F00B         	goto	u2361
  3411   001762  EFB5  F00B         	goto	u2360
  3412   001766                     u2361:
  3413   001766  EFD3  F00B         	goto	l3489
  3414   00176A                     u2360:
  3415   00176A  5002               	movf	GPIO_PIN_Write_Logic@_pin_config^0,w,c
  3416   00176C  6ED9               	movwf	fsr2l,c
  3417   00176E  6ADA               	clrf	fsr2h,c
  3418   001770  30DF               	rrcf	223,w,c
  3419   001772  32E8               	rrcf	wreg,f,c
  3420   001774  32E8               	rrcf	wreg,f,c
  3421   001776  0B07               	andlw	7
  3422   001778  6E04               	movwf	??_GPIO_PIN_Write_Logic^0,c
  3423   00177A  0E08               	movlw	8
  3424   00177C  6004               	cpfslt	??_GPIO_PIN_Write_Logic^0,c
  3425   00177E  EFC3  F00B         	goto	u2371
  3426   001782  EFC5  F00B         	goto	u2370
  3427   001786                     u2371:
  3428   001786  EFD3  F00B         	goto	l3489
  3429   00178A                     u2370:
  3430   00178A  5002               	movf	GPIO_PIN_Write_Logic@_pin_config^0,w,c
  3431   00178C  6ED9               	movwf	fsr2l,c
  3432   00178E  6ADA               	clrf	fsr2h,c
  3433   001790  50DF               	movf	223,w,c
  3434   001792  0B07               	andlw	7
  3435   001794  6E04               	movwf	??_GPIO_PIN_Write_Logic^0,c
  3436   001796  0E04               	movlw	4
  3437   001798  6404               	cpfsgt	??_GPIO_PIN_Write_Logic^0,c
  3438   00179A  EFD1  F00B         	goto	u2381
  3439   00179E  EFD3  F00B         	goto	u2380
  3440   0017A2                     u2381:
  3441   0017A2  EF2A  F00C         	goto	l3497
  3442   0017A6                     u2380:
  3443   0017A6                     l3489:
  3444                           
  3445                           ;MCAL_Layer/GPIO/HAL_GPIO.c: 65:         RET = (Std_ReturnType)0x00;
  3446   0017A6  0E00               	movlw	0
  3447   0017A8  6E09               	movwf	GPIO_PIN_Write_Logic@RET^0,c
  3448                           
  3449                           ;MCAL_Layer/GPIO/HAL_GPIO.c: 66:     }
  3450   0017AA  EF3F  F00C         	goto	l3499
  3451   0017AE                     l3491:
  3452                           
  3453                           ;MCAL_Layer/GPIO/HAL_GPIO.c: 71:                 (*LAT_REG[_pin_config->PORT] |= (1<<_pi
      +                          n_config->PIN_NUMBER));
  3454   0017AE  5002               	movf	GPIO_PIN_Write_Logic@_pin_config^0,w,c
  3455   0017B0  6ED9               	movwf	fsr2l,c
  3456   0017B2  6ADA               	clrf	fsr2h,c
  3457   0017B4  30DF               	rrcf	223,w,c
  3458   0017B6  32E8               	rrcf	wreg,f,c
  3459   0017B8  32E8               	rrcf	wreg,f,c
  3460   0017BA  0B07               	andlw	7
  3461   0017BC  6E04               	movwf	??_GPIO_PIN_Write_Logic^0,c
  3462   0017BE  0E01               	movlw	1
  3463   0017C0  6E05               	movwf	(??_GPIO_PIN_Write_Logic+1)^0,c
  3464   0017C2  2A04               	incf	??_GPIO_PIN_Write_Logic^0,f,c
  3465   0017C4  EFE6  F00B         	goto	u2394
  3466   0017C8                     u2395:
  3467   0017C8  90D8               	bcf	status,0,c
  3468   0017CA  3605               	rlcf	(??_GPIO_PIN_Write_Logic+1)^0,f,c
  3469   0017CC                     u2394:
  3470   0017CC  2E04               	decfsz	??_GPIO_PIN_Write_Logic^0,f,c
  3471   0017CE  EFE4  F00B         	goto	u2395
  3472   0017D2  5002               	movf	GPIO_PIN_Write_Logic@_pin_config^0,w,c
  3473   0017D4  6ED9               	movwf	fsr2l,c
  3474   0017D6  6ADA               	clrf	fsr2h,c
  3475   0017D8  50DF               	movf	223,w,c
  3476   0017DA  0B07               	andlw	7
  3477   0017DC  0D02               	mullw	2
  3478   0017DE  50F3               	movf	243,w,c
  3479   0017E0  0F59               	addlw	low _LAT_REG
  3480   0017E2  6ED9               	movwf	fsr2l,c
  3481   0017E4  6ADA               	clrf	fsr2h,c
  3482   0017E6  CFDE F006          	movff	postinc2,??_GPIO_PIN_Write_Logic+2
  3483   0017EA  CFDD F007          	movff	postdec2,??_GPIO_PIN_Write_Logic+3
  3484   0017EE  C006  FFD9         	movff	??_GPIO_PIN_Write_Logic+2,fsr2l
  3485   0017F2  C007  FFDA         	movff	??_GPIO_PIN_Write_Logic+3,fsr2h
  3486   0017F6  5005               	movf	(??_GPIO_PIN_Write_Logic+1)^0,w,c
  3487   0017F8  12DF               	iorwf	indf2,f,c
  3488                           
  3489                           ;MCAL_Layer/GPIO/HAL_GPIO.c: 72:                 break;
  3490   0017FA  EF3F  F00C         	goto	l3499
  3491   0017FE                     l3493:
  3492                           
  3493                           ;MCAL_Layer/GPIO/HAL_GPIO.c: 74:                 (*LAT_REG[_pin_config->PORT] &= ~(1<<_p
      +                          in_config->PIN_NUMBER));
  3494   0017FE  5002               	movf	GPIO_PIN_Write_Logic@_pin_config^0,w,c
  3495   001800  6ED9               	movwf	fsr2l,c
  3496   001802  6ADA               	clrf	fsr2h,c
  3497   001804  30DF               	rrcf	223,w,c
  3498   001806  32E8               	rrcf	wreg,f,c
  3499   001808  32E8               	rrcf	wreg,f,c
  3500   00180A  0B07               	andlw	7
  3501   00180C  6E04               	movwf	??_GPIO_PIN_Write_Logic^0,c
  3502   00180E  0E01               	movlw	1
  3503   001810  6E05               	movwf	(??_GPIO_PIN_Write_Logic+1)^0,c
  3504   001812  2A04               	incf	??_GPIO_PIN_Write_Logic^0,f,c
  3505   001814  EF0E  F00C         	goto	u2404
  3506   001818                     u2405:
  3507   001818  90D8               	bcf	status,0,c
  3508   00181A  3605               	rlcf	(??_GPIO_PIN_Write_Logic+1)^0,f,c
  3509   00181C                     u2404:
  3510   00181C  2E04               	decfsz	??_GPIO_PIN_Write_Logic^0,f,c
  3511   00181E  EF0C  F00C         	goto	u2405
  3512   001822  5005               	movf	(??_GPIO_PIN_Write_Logic+1)^0,w,c
  3513   001824  0AFF               	xorlw	255
  3514   001826  6E06               	movwf	(??_GPIO_PIN_Write_Logic+2)^0,c
  3515   001828  5002               	movf	GPIO_PIN_Write_Logic@_pin_config^0,w,c
  3516   00182A  6ED9               	movwf	fsr2l,c
  3517   00182C  6ADA               	clrf	fsr2h,c
  3518   00182E  50DF               	movf	223,w,c
  3519   001830  0B07               	andlw	7
  3520   001832  0D02               	mullw	2
  3521   001834  50F3               	movf	243,w,c
  3522   001836  0F59               	addlw	low _LAT_REG
  3523   001838  6ED9               	movwf	fsr2l,c
  3524   00183A  6ADA               	clrf	fsr2h,c
  3525   00183C  CFDE F007          	movff	postinc2,??_GPIO_PIN_Write_Logic+3
  3526   001840  CFDD F008          	movff	postdec2,??_GPIO_PIN_Write_Logic+4
  3527   001844  C007  FFD9         	movff	??_GPIO_PIN_Write_Logic+3,fsr2l
  3528   001848  C008  FFDA         	movff	??_GPIO_PIN_Write_Logic+4,fsr2h
  3529   00184C  5006               	movf	(??_GPIO_PIN_Write_Logic+2)^0,w,c
  3530   00184E  16DF               	andwf	indf2,f,c
  3531                           
  3532                           ;MCAL_Layer/GPIO/HAL_GPIO.c: 75:                 break;
  3533   001850  EF3F  F00C         	goto	l3499
  3534   001854                     l3497:
  3535   001854  5003               	movf	GPIO_PIN_Write_Logic@logic_status^0,w,c
  3536   001856  6E04               	movwf	??_GPIO_PIN_Write_Logic^0,c
  3537   001858  6A05               	clrf	(??_GPIO_PIN_Write_Logic+1)^0,c
  3538                           
  3539                           ; Switch on 2 bytes has been partitioned into a top level switch of size 1, and 1 sub-sw
      +                          itches
  3540                           ; Switch size 1, requested type "simple"
  3541                           ; Number of cases is 1, Range of values is 0 to 0
  3542                           ; switch strategies available:
  3543                           ; Name         Instructions Cycles
  3544                           ; simple_byte            4     3 (average)
  3545                           ;	Chosen strategy is simple_byte
  3546   00185A  5005               	movf	(??_GPIO_PIN_Write_Logic+1)^0,w,c
  3547   00185C  0A00               	xorlw	0	; case 0
  3548   00185E  B4D8               	btfsc	status,2,c
  3549   001860  EF34  F00C         	goto	l4611
  3550   001864  EFD3  F00B         	goto	l3489
  3551   001868                     l4611:
  3552                           
  3553                           ; Switch size 1, requested type "simple"
  3554                           ; Number of cases is 2, Range of values is 0 to 1
  3555                           ; switch strategies available:
  3556                           ; Name         Instructions Cycles
  3557                           ; simple_byte            7     4 (average)
  3558                           ;	Chosen strategy is simple_byte
  3559   001868  5004               	movf	??_GPIO_PIN_Write_Logic^0,w,c
  3560   00186A  0A00               	xorlw	0	; case 0
  3561   00186C  B4D8               	btfsc	status,2,c
  3562   00186E  EFFF  F00B         	goto	l3493
  3563   001872  0A01               	xorlw	1	; case 1
  3564   001874  B4D8               	btfsc	status,2,c
  3565   001876  EFD7  F00B         	goto	l3491
  3566   00187A  EFD3  F00B         	goto	l3489
  3567   00187E                     l3499:
  3568                           
  3569                           ;MCAL_Layer/GPIO/HAL_GPIO.c: 80:     return RET;
  3570   00187E  5009               	movf	GPIO_PIN_Write_Logic@RET^0,w,c
  3571   001880  0012               	return		;funcret
  3572   001882                     __end_of_GPIO_PIN_Write_Logic:
  3573                           	callstack 0
  3574                           
  3575 ;; *************** function _GPIO_PIN_Read_Logic *****************
  3576 ;; Defined at:
  3577 ;;		line 91 in file "MCAL_Layer/GPIO/HAL_GPIO.c"
  3578 ;; Parameters:    Size  Location     Type
  3579 ;;  _pin_config     1    1[COMRAM] PTR const struct .
  3580 ;;		 -> keypad$column_pin(4), keypad(8), 
  3581 ;;  logic_status    1    2[COMRAM] PTR enum E2657
  3582 ;;		 -> Button_Read@logic(1), KEYPAD_Get_Number@logic(1), 
  3583 ;; Auto vars:     Size  Location     Type
  3584 ;;  RET             1    7[COMRAM] unsigned char 
  3585 ;; Return value:  Size  Location     Type
  3586 ;;                  1    wreg      unsigned char 
  3587 ;; Registers used:
  3588 ;;		wreg, fsr1l, fsr1h, fsr2l, fsr2h, status,2, status,0, prodl, prodh
  3589 ;; Tracked objects:
  3590 ;;		On entry : 0/0
  3591 ;;		On exit  : 0/0
  3592 ;;		Unchanged: 0/0
  3593 ;; Data sizes:     COMRAM   BANK0   BANK1   BANK2   BANK3   BANK4   BANK5   BANK6   BANK7   BANK8   BANK9  BANK10  BANK1
      +1  BANK12  BANK13  BANK14  BANK15
  3594 ;;      Params:         2       0       0       0       0       0       0       0       0       0       0       0       
      +0       0       0       0       0
  3595 ;;      Locals:         1       0       0       0       0       0       0       0       0       0       0       0       
      +0       0       0       0       0
  3596 ;;      Temps:          4       0       0       0       0       0       0       0       0       0       0       0       
      +0       0       0       0       0
  3597 ;;      Totals:         7       0       0       0       0       0       0       0       0       0       0       0       
      +0       0       0       0       0
  3598 ;;Total ram usage:        7 bytes
  3599 ;; Hardware stack levels used: 1
  3600 ;; Hardware stack levels required when called: 2
  3601 ;; This function calls:
  3602 ;;		Nothing
  3603 ;; This function is called by:
  3604 ;;		_KEYPAD_Get_Number
  3605 ;;		_Button_Read
  3606 ;; This function uses a non-reentrant model
  3607 ;;
  3608                           
  3609                           	psect	text19
  3610   001C96                     __ptext19:
  3611                           	callstack 0
  3612   001C96                     _GPIO_PIN_Read_Logic:
  3613                           	callstack 26
  3614   001C96                     
  3615                           ;MCAL_Layer/GPIO/HAL_GPIO.c: 92:     Std_ReturnType RET = (Std_ReturnType)0x01;
  3616   001C96  0E01               	movlw	1
  3617   001C98  6E08               	movwf	GPIO_PIN_Read_Logic@RET^0,c
  3618                           
  3619                           ;MCAL_Layer/GPIO/HAL_GPIO.c: 93:     if ( ((void*)0) == _pin_config || ((void*)0) == log
      +                          ic_status || (_pin_config->PIN_NUMBER)>8 -1 || (_pin_config->PORT)>5 -1){
  3620   001C9A  5002               	movf	GPIO_PIN_Read_Logic@_pin_config^0,w,c
  3621   001C9C  B4D8               	btfsc	status,2,c
  3622   001C9E  EF53  F00E         	goto	u2441
  3623   001CA2  EF55  F00E         	goto	u2440
  3624   001CA6                     u2441:
  3625   001CA6  EF7B  F00E         	goto	l3551
  3626   001CAA                     u2440:
  3627   001CAA  5003               	movf	GPIO_PIN_Read_Logic@logic_status^0,w,c
  3628   001CAC  B4D8               	btfsc	status,2,c
  3629   001CAE  EF5B  F00E         	goto	u2451
  3630   001CB2  EF5D  F00E         	goto	u2450
  3631   001CB6                     u2451:
  3632   001CB6  EF7B  F00E         	goto	l3551
  3633   001CBA                     u2450:
  3634   001CBA  5002               	movf	GPIO_PIN_Read_Logic@_pin_config^0,w,c
  3635   001CBC  6ED9               	movwf	fsr2l,c
  3636   001CBE  6ADA               	clrf	fsr2h,c
  3637   001CC0  30DF               	rrcf	223,w,c
  3638   001CC2  32E8               	rrcf	wreg,f,c
  3639   001CC4  32E8               	rrcf	wreg,f,c
  3640   001CC6  0B07               	andlw	7
  3641   001CC8  6E04               	movwf	??_GPIO_PIN_Read_Logic^0,c
  3642   001CCA  0E08               	movlw	8
  3643   001CCC  6004               	cpfslt	??_GPIO_PIN_Read_Logic^0,c
  3644   001CCE  EF6B  F00E         	goto	u2461
  3645   001CD2  EF6D  F00E         	goto	u2460
  3646   001CD6                     u2461:
  3647   001CD6  EF7B  F00E         	goto	l3551
  3648   001CDA                     u2460:
  3649   001CDA  5002               	movf	GPIO_PIN_Read_Logic@_pin_config^0,w,c
  3650   001CDC  6ED9               	movwf	fsr2l,c
  3651   001CDE  6ADA               	clrf	fsr2h,c
  3652   001CE0  50DF               	movf	223,w,c
  3653   001CE2  0B07               	andlw	7
  3654   001CE4  6E04               	movwf	??_GPIO_PIN_Read_Logic^0,c
  3655   001CE6  0E04               	movlw	4
  3656   001CE8  6404               	cpfsgt	??_GPIO_PIN_Read_Logic^0,c
  3657   001CEA  EF79  F00E         	goto	u2471
  3658   001CEE  EF7B  F00E         	goto	u2470
  3659   001CF2                     u2471:
  3660   001CF2  EF7F  F00E         	goto	l3553
  3661   001CF6                     u2470:
  3662   001CF6                     l3551:
  3663                           
  3664                           ;MCAL_Layer/GPIO/HAL_GPIO.c: 94:         RET = (Std_ReturnType)0x00;
  3665   001CF6  0E00               	movlw	0
  3666   001CF8  6E08               	movwf	GPIO_PIN_Read_Logic@RET^0,c
  3667                           
  3668                           ;MCAL_Layer/GPIO/HAL_GPIO.c: 95:     }
  3669   001CFA  EFA9  F00E         	goto	l3555
  3670   001CFE                     l3553:
  3671                           
  3672                           ;MCAL_Layer/GPIO/HAL_GPIO.c: 98:         *logic_status = ((*PORT_REG[_pin_config->PORT] 
      +                          >> _pin_config->PIN_NUMBER)&1);
  3673   001CFE  5003               	movf	GPIO_PIN_Read_Logic@logic_status^0,w,c
  3674   001D00  6ED9               	movwf	fsr2l,c
  3675   001D02  6ADA               	clrf	fsr2h,c
  3676   001D04  5002               	movf	GPIO_PIN_Read_Logic@_pin_config^0,w,c
  3677   001D06  6EE1               	movwf	fsr1l,c
  3678   001D08  6AE2               	clrf	fsr1h,c
  3679   001D0A  30E7               	rrcf	231,w,c
  3680   001D0C  32E8               	rrcf	wreg,f,c
  3681   001D0E  32E8               	rrcf	wreg,f,c
  3682   001D10  0B07               	andlw	7
  3683   001D12  6E04               	movwf	??_GPIO_PIN_Read_Logic^0,c
  3684   001D14  5002               	movf	GPIO_PIN_Read_Logic@_pin_config^0,w,c
  3685   001D16  6EE1               	movwf	fsr1l,c
  3686   001D18  6AE2               	clrf	fsr1h,c
  3687   001D1A  50E7               	movf	231,w,c
  3688   001D1C  0B07               	andlw	7
  3689   001D1E  0D02               	mullw	2
  3690   001D20  50F3               	movf	243,w,c
  3691   001D22  0F80               	addlw	low _PORT_REG
  3692   001D24  6EE1               	movwf	fsr1l,c
  3693   001D26  6AE2               	clrf	fsr1h,c
  3694   001D28  CFE6 F005          	movff	postinc1,??_GPIO_PIN_Read_Logic+1
  3695   001D2C  CFE5 F006          	movff	postdec1,??_GPIO_PIN_Read_Logic+2
  3696   001D30  C005  FFE1         	movff	??_GPIO_PIN_Read_Logic+1,fsr1l
  3697   001D34  C006  FFE2         	movff	??_GPIO_PIN_Read_Logic+2,fsr1h
  3698   001D38  50E7               	movf	indf1,w,c
  3699   001D3A  6E07               	movwf	(??_GPIO_PIN_Read_Logic+3)^0,c
  3700   001D3C  2A04               	incf	??_GPIO_PIN_Read_Logic^0,f,c
  3701   001D3E  EFA3  F00E         	goto	u2484
  3702   001D42                     u2485:
  3703   001D42  90D8               	bcf	status,0,c
  3704   001D44  3207               	rrcf	(??_GPIO_PIN_Read_Logic+3)^0,f,c
  3705   001D46                     u2484:
  3706   001D46  2E04               	decfsz	??_GPIO_PIN_Read_Logic^0,f,c
  3707   001D48  EFA1  F00E         	goto	u2485
  3708   001D4C  5007               	movf	(??_GPIO_PIN_Read_Logic+3)^0,w,c
  3709   001D4E  0B01               	andlw	1
  3710   001D50  6EDF               	movwf	indf2,c
  3711   001D52                     l3555:
  3712                           
  3713                           ;MCAL_Layer/GPIO/HAL_GPIO.c: 100:     return RET;
  3714   001D52  5008               	movf	GPIO_PIN_Read_Logic@RET^0,w,c
  3715   001D54  0012               	return		;funcret
  3716   001D56                     __end_of_GPIO_PIN_Read_Logic:
  3717                           	callstack 0
  3718                           
  3719 ;; *************** function _InterruptManager *****************
  3720 ;; Defined at:
  3721 ;;		line 31 in file "MCAL_Layer/Interrupt/INT_Manager.c"
  3722 ;; Parameters:    Size  Location     Type
  3723 ;;		None
  3724 ;; Auto vars:     Size  Location     Type
  3725 ;;		None
  3726 ;; Return value:  Size  Location     Type
  3727 ;;                  1    wreg      void 
  3728 ;; Registers used:
  3729 ;;		wreg, status,2, status,0, cstack
  3730 ;; Tracked objects:
  3731 ;;		On entry : 0/0
  3732 ;;		On exit  : 0/0
  3733 ;;		Unchanged: 0/0
  3734 ;; Data sizes:     COMRAM   BANK0   BANK1   BANK2   BANK3   BANK4   BANK5   BANK6   BANK7   BANK8   BANK9  BANK10  BANK1
      +1  BANK12  BANK13  BANK14  BANK15
  3735 ;;      Params:         0       0       0       0       0       0       0       0       0       0       0       0       
      +0       0       0       0       0
  3736 ;;      Locals:         0       0       0       0       0       0       0       0       0       0       0       0       
      +0       0       0       0       0
  3737 ;;      Temps:          0       0       0       0       0       0       0       0       0       0       0       0       
      +0       0       0       0       0
  3738 ;;      Totals:         0       0       0       0       0       0       0       0       0       0       0       0       
      +0       0       0       0       0
  3739 ;;Total ram usage:        0 bytes
  3740 ;; Hardware stack levels used: 1
  3741 ;; Hardware stack levels required when called: 1
  3742 ;; This function calls:
  3743 ;;		_INT0_ISR
  3744 ;;		_INT1_ISR
  3745 ;;		_INT2_ISR
  3746 ;;		_RB4_ISR
  3747 ;;		_RB5_ISR
  3748 ;;		_RB6_ISR
  3749 ;;		_RB7_ISR
  3750 ;; This function is called by:
  3751 ;;		Interrupt level 2
  3752 ;; This function uses a non-reentrant model
  3753 ;;
  3754                           
  3755                           	psect	intcode
  3756   000008                     __pintcode:
  3757                           	callstack 0
  3758   000008                     _InterruptManager:
  3759                           	callstack 22
  3760                           
  3761                           ;incstack = 0
  3762   000008  827B               	bsf	int$flags,1,c	;set compiler interrupt flag (level 2)
  3763   00000A  ED6C  F009         	call	int_func,f	;refresh shadow registers
  3764                           
  3765                           	psect	intcode_body
  3766   0012D8                     __pintcode_body:
  3767                           	callstack 22
  3768   0012D8                     int_func:
  3769                           	callstack 22
  3770   0012D8  0006               	pop		; remove dummy address from shadow register refresh
  3771   0012DA                     
  3772                           ;MCAL_Layer/Interrupt/INT_Manager.c: 32:     if ( (INTCONbits.INT0IE == 1) && (INTCONbit
      +                          s.INT0IF == 1) ){
  3773   0012DA  A8F2               	btfss	242,4,c	;volatile
  3774   0012DC  EF72  F009         	goto	i2u198_41
  3775   0012E0  EF74  F009         	goto	i2u198_40
  3776   0012E4                     i2u198_41:
  3777   0012E4  EF7D  F009         	goto	i2l879
  3778   0012E8                     i2u198_40:
  3779   0012E8  A2F2               	btfss	242,1,c	;volatile
  3780   0012EA  EF79  F009         	goto	i2u199_41
  3781   0012EE  EF7B  F009         	goto	i2u199_40
  3782   0012F2                     i2u199_41:
  3783   0012F2  EF7D  F009         	goto	i2l879
  3784   0012F6                     i2u199_40:
  3785   0012F6                     
  3786                           ;MCAL_Layer/Interrupt/INT_Manager.c: 33:         INT0_ISR();
  3787   0012F6  EC7E  F011         	call	_INT0_ISR	;wreg free
  3788   0012FA                     i2l879:
  3789                           
  3790                           ;MCAL_Layer/Interrupt/INT_Manager.c: 37:     if ( (INTCON3bits.INT1IE == 1) && (INTCON3b
      +                          its.INT1IF == 1) ){
  3791   0012FA  A6F0               	btfss	240,3,c	;volatile
  3792   0012FC  EF82  F009         	goto	i2u200_41
  3793   001300  EF84  F009         	goto	i2u200_40
  3794   001304                     i2u200_41:
  3795   001304  EF8D  F009         	goto	i2l881
  3796   001308                     i2u200_40:
  3797   001308  A0F0               	btfss	240,0,c	;volatile
  3798   00130A  EF89  F009         	goto	i2u201_41
  3799   00130E  EF8B  F009         	goto	i2u201_40
  3800   001312                     i2u201_41:
  3801   001312  EF8D  F009         	goto	i2l881
  3802   001316                     i2u201_40:
  3803   001316                     
  3804                           ;MCAL_Layer/Interrupt/INT_Manager.c: 38:         INT1_ISR();
  3805   001316  EC7C  F011         	call	_INT1_ISR	;wreg free
  3806   00131A                     i2l881:
  3807                           
  3808                           ;MCAL_Layer/Interrupt/INT_Manager.c: 42:     if ( (INTCON3bits.INT2IE == 1) && (INTCON3b
      +                          its.INT2IF == 1) ){
  3809   00131A  A8F0               	btfss	240,4,c	;volatile
  3810   00131C  EF92  F009         	goto	i2u202_41
  3811   001320  EF94  F009         	goto	i2u202_40
  3812   001324                     i2u202_41:
  3813   001324  EF9D  F009         	goto	i2l883
  3814   001328                     i2u202_40:
  3815   001328  A2F0               	btfss	240,1,c	;volatile
  3816   00132A  EF99  F009         	goto	i2u203_41
  3817   00132E  EF9B  F009         	goto	i2u203_40
  3818   001332                     i2u203_41:
  3819   001332  EF9D  F009         	goto	i2l883
  3820   001336                     i2u203_40:
  3821   001336                     
  3822                           ;MCAL_Layer/Interrupt/INT_Manager.c: 43:         INT2_ISR();
  3823   001336  EC7A  F011         	call	_INT2_ISR	;wreg free
  3824   00133A                     i2l883:
  3825                           
  3826                           ;MCAL_Layer/Interrupt/INT_Manager.c: 49:     if ( (INTCONbits.RBIE == 1) && (INTCONbits.
      +                          RBIF == 1) && (PORTBbits.RB4)==0x01 && RB4_flag == 1){
  3827   00133A  A6F2               	btfss	242,3,c	;volatile
  3828   00133C  EFA2  F009         	goto	i2u204_41
  3829   001340  EFA4  F009         	goto	i2u204_40
  3830   001344                     i2u204_41:
  3831   001344  EFBF  F009         	goto	i2l885
  3832   001348                     i2u204_40:
  3833   001348  A0F2               	btfss	242,0,c	;volatile
  3834   00134A  EFA9  F009         	goto	i2u205_41
  3835   00134E  EFAB  F009         	goto	i2u205_40
  3836   001352                     i2u205_41:
  3837   001352  EFBF  F009         	goto	i2l885
  3838   001356                     i2u205_40:
  3839   001356  A881               	btfss	129,4,c	;volatile
  3840   001358  EFB0  F009         	goto	i2u206_41
  3841   00135C  EFB2  F009         	goto	i2u206_40
  3842   001360                     i2u206_41:
  3843   001360  EFBF  F009         	goto	i2l885
  3844   001364                     i2u206_40:
  3845   001364  0470               	decf	_RB4_flag^0,w,c	;volatile
  3846   001366  A4D8               	btfss	status,2,c
  3847   001368  EFB8  F009         	goto	i2u207_41
  3848   00136C  EFBA  F009         	goto	i2u207_40
  3849   001370                     i2u207_41:
  3850   001370  EFBF  F009         	goto	i2l885
  3851   001374                     i2u207_40:
  3852   001374                     
  3853                           ;MCAL_Layer/Interrupt/INT_Manager.c: 50:         RB4_flag = 0;
  3854   001374  0E00               	movlw	0
  3855   001376  6E70               	movwf	_RB4_flag^0,c	;volatile
  3856   001378                     
  3857                           ;MCAL_Layer/Interrupt/INT_Manager.c: 51:         RB4_ISR(0);
  3858   001378  0E00               	movlw	0
  3859   00137A  EC64  F011         	call	_RB4_ISR
  3860   00137E                     i2l885:
  3861                           
  3862                           ;MCAL_Layer/Interrupt/INT_Manager.c: 55:     if ( (INTCONbits.RBIE == 1) && (INTCONbits.
      +                          RBIF == 1) && (PORTBbits.RB4)==0x00 && RB4_flag == 0){
  3863   00137E  A6F2               	btfss	242,3,c	;volatile
  3864   001380  EFC4  F009         	goto	i2u208_41
  3865   001384  EFC6  F009         	goto	i2u208_40
  3866   001388                     i2u208_41:
  3867   001388  EFE1  F009         	goto	i2l887
  3868   00138C                     i2u208_40:
  3869   00138C  A0F2               	btfss	242,0,c	;volatile
  3870   00138E  EFCB  F009         	goto	i2u209_41
  3871   001392  EFCD  F009         	goto	i2u209_40
  3872   001396                     i2u209_41:
  3873   001396  EFE1  F009         	goto	i2l887
  3874   00139A                     i2u209_40:
  3875   00139A  B881               	btfsc	129,4,c	;volatile
  3876   00139C  EFD2  F009         	goto	i2u210_41
  3877   0013A0  EFD4  F009         	goto	i2u210_40
  3878   0013A4                     i2u210_41:
  3879   0013A4  EFE1  F009         	goto	i2l887
  3880   0013A8                     i2u210_40:
  3881   0013A8  5070               	movf	_RB4_flag^0,w,c	;volatile
  3882   0013AA  A4D8               	btfss	status,2,c
  3883   0013AC  EFDA  F009         	goto	i2u211_41
  3884   0013B0  EFDC  F009         	goto	i2u211_40
  3885   0013B4                     i2u211_41:
  3886   0013B4  EFE1  F009         	goto	i2l887
  3887   0013B8                     i2u211_40:
  3888   0013B8                     
  3889                           ;MCAL_Layer/Interrupt/INT_Manager.c: 56:         RB4_flag = 1;
  3890   0013B8  0E01               	movlw	1
  3891   0013BA  6E70               	movwf	_RB4_flag^0,c	;volatile
  3892   0013BC                     
  3893                           ;MCAL_Layer/Interrupt/INT_Manager.c: 57:         RB4_ISR(1);
  3894   0013BC  0E01               	movlw	1
  3895   0013BE  EC64  F011         	call	_RB4_ISR
  3896   0013C2                     i2l887:
  3897                           
  3898                           ;MCAL_Layer/Interrupt/INT_Manager.c: 62:     if ( (INTCONbits.RBIE == 1) && (INTCONbits.
      +                          RBIF == 1) && (PORTBbits.RB5)==0x01 && RB5_flag == 1){
  3899   0013C2  A6F2               	btfss	242,3,c	;volatile
  3900   0013C4  EFE6  F009         	goto	i2u212_41
  3901   0013C8  EFE8  F009         	goto	i2u212_40
  3902   0013CC                     i2u212_41:
  3903   0013CC  EF03  F00A         	goto	i2l889
  3904   0013D0                     i2u212_40:
  3905   0013D0  A0F2               	btfss	242,0,c	;volatile
  3906   0013D2  EFED  F009         	goto	i2u213_41
  3907   0013D6  EFEF  F009         	goto	i2u213_40
  3908   0013DA                     i2u213_41:
  3909   0013DA  EF03  F00A         	goto	i2l889
  3910   0013DE                     i2u213_40:
  3911   0013DE  AA81               	btfss	129,5,c	;volatile
  3912   0013E0  EFF4  F009         	goto	i2u214_41
  3913   0013E4  EFF6  F009         	goto	i2u214_40
  3914   0013E8                     i2u214_41:
  3915   0013E8  EF03  F00A         	goto	i2l889
  3916   0013EC                     i2u214_40:
  3917   0013EC  046F               	decf	_RB5_flag^0,w,c	;volatile
  3918   0013EE  A4D8               	btfss	status,2,c
  3919   0013F0  EFFC  F009         	goto	i2u215_41
  3920   0013F4  EFFE  F009         	goto	i2u215_40
  3921   0013F8                     i2u215_41:
  3922   0013F8  EF03  F00A         	goto	i2l889
  3923   0013FC                     i2u215_40:
  3924   0013FC                     
  3925                           ;MCAL_Layer/Interrupt/INT_Manager.c: 63:         RB5_flag = 0;
  3926   0013FC  0E00               	movlw	0
  3927   0013FE  6E6F               	movwf	_RB5_flag^0,c	;volatile
  3928   001400                     
  3929                           ;MCAL_Layer/Interrupt/INT_Manager.c: 64:         RB5_ISR(0);
  3930   001400  0E00               	movlw	0
  3931   001402  EC57  F011         	call	_RB5_ISR
  3932   001406                     i2l889:
  3933                           
  3934                           ;MCAL_Layer/Interrupt/INT_Manager.c: 68:     if ( (INTCONbits.RBIE == 1) && (INTCONbits.
      +                          RBIF == 1) && (PORTBbits.RB5)==0x00 && RB5_flag == 0){
  3935   001406  A6F2               	btfss	242,3,c	;volatile
  3936   001408  EF08  F00A         	goto	i2u216_41
  3937   00140C  EF0A  F00A         	goto	i2u216_40
  3938   001410                     i2u216_41:
  3939   001410  EF25  F00A         	goto	i2l891
  3940   001414                     i2u216_40:
  3941   001414  A0F2               	btfss	242,0,c	;volatile
  3942   001416  EF0F  F00A         	goto	i2u217_41
  3943   00141A  EF11  F00A         	goto	i2u217_40
  3944   00141E                     i2u217_41:
  3945   00141E  EF25  F00A         	goto	i2l891
  3946   001422                     i2u217_40:
  3947   001422  BA81               	btfsc	129,5,c	;volatile
  3948   001424  EF16  F00A         	goto	i2u218_41
  3949   001428  EF18  F00A         	goto	i2u218_40
  3950   00142C                     i2u218_41:
  3951   00142C  EF25  F00A         	goto	i2l891
  3952   001430                     i2u218_40:
  3953   001430  506F               	movf	_RB5_flag^0,w,c	;volatile
  3954   001432  A4D8               	btfss	status,2,c
  3955   001434  EF1E  F00A         	goto	i2u219_41
  3956   001438  EF20  F00A         	goto	i2u219_40
  3957   00143C                     i2u219_41:
  3958   00143C  EF25  F00A         	goto	i2l891
  3959   001440                     i2u219_40:
  3960   001440                     
  3961                           ;MCAL_Layer/Interrupt/INT_Manager.c: 69:         RB5_flag = 1;
  3962   001440  0E01               	movlw	1
  3963   001442  6E6F               	movwf	_RB5_flag^0,c	;volatile
  3964   001444                     
  3965                           ;MCAL_Layer/Interrupt/INT_Manager.c: 70:         RB5_ISR(1);
  3966   001444  0E01               	movlw	1
  3967   001446  EC57  F011         	call	_RB5_ISR
  3968   00144A                     i2l891:
  3969                           
  3970                           ;MCAL_Layer/Interrupt/INT_Manager.c: 74:     if ( (INTCONbits.RBIE == 1) && (INTCONbits.
      +                          RBIF == 1) && (PORTBbits.RB6)==0x01 && RB6_flag == 1){
  3971   00144A  A6F2               	btfss	242,3,c	;volatile
  3972   00144C  EF2A  F00A         	goto	i2u220_41
  3973   001450  EF2C  F00A         	goto	i2u220_40
  3974   001454                     i2u220_41:
  3975   001454  EF47  F00A         	goto	i2l893
  3976   001458                     i2u220_40:
  3977   001458  A0F2               	btfss	242,0,c	;volatile
  3978   00145A  EF31  F00A         	goto	i2u221_41
  3979   00145E  EF33  F00A         	goto	i2u221_40
  3980   001462                     i2u221_41:
  3981   001462  EF47  F00A         	goto	i2l893
  3982   001466                     i2u221_40:
  3983   001466  AC81               	btfss	129,6,c	;volatile
  3984   001468  EF38  F00A         	goto	i2u222_41
  3985   00146C  EF3A  F00A         	goto	i2u222_40
  3986   001470                     i2u222_41:
  3987   001470  EF47  F00A         	goto	i2l893
  3988   001474                     i2u222_40:
  3989   001474  046E               	decf	_RB6_flag^0,w,c	;volatile
  3990   001476  A4D8               	btfss	status,2,c
  3991   001478  EF40  F00A         	goto	i2u223_41
  3992   00147C  EF42  F00A         	goto	i2u223_40
  3993   001480                     i2u223_41:
  3994   001480  EF47  F00A         	goto	i2l893
  3995   001484                     i2u223_40:
  3996   001484                     
  3997                           ;MCAL_Layer/Interrupt/INT_Manager.c: 75:         RB6_flag = 0;
  3998   001484  0E00               	movlw	0
  3999   001486  6E6E               	movwf	_RB6_flag^0,c	;volatile
  4000   001488                     
  4001                           ;MCAL_Layer/Interrupt/INT_Manager.c: 76:         RB6_ISR(0);
  4002   001488  0E00               	movlw	0
  4003   00148A  EC4A  F011         	call	_RB6_ISR
  4004   00148E                     i2l893:
  4005                           
  4006                           ;MCAL_Layer/Interrupt/INT_Manager.c: 80:     if ( (INTCONbits.RBIE == 1) && (INTCONbits.
      +                          RBIF == 1) && (PORTBbits.RB6)==0x00 && RB6_flag == 0){
  4007   00148E  A6F2               	btfss	242,3,c	;volatile
  4008   001490  EF4C  F00A         	goto	i2u224_41
  4009   001494  EF4E  F00A         	goto	i2u224_40
  4010   001498                     i2u224_41:
  4011   001498  EF69  F00A         	goto	i2l895
  4012   00149C                     i2u224_40:
  4013   00149C  A0F2               	btfss	242,0,c	;volatile
  4014   00149E  EF53  F00A         	goto	i2u225_41
  4015   0014A2  EF55  F00A         	goto	i2u225_40
  4016   0014A6                     i2u225_41:
  4017   0014A6  EF69  F00A         	goto	i2l895
  4018   0014AA                     i2u225_40:
  4019   0014AA  BC81               	btfsc	129,6,c	;volatile
  4020   0014AC  EF5A  F00A         	goto	i2u226_41
  4021   0014B0  EF5C  F00A         	goto	i2u226_40
  4022   0014B4                     i2u226_41:
  4023   0014B4  EF69  F00A         	goto	i2l895
  4024   0014B8                     i2u226_40:
  4025   0014B8  506E               	movf	_RB6_flag^0,w,c	;volatile
  4026   0014BA  A4D8               	btfss	status,2,c
  4027   0014BC  EF62  F00A         	goto	i2u227_41
  4028   0014C0  EF64  F00A         	goto	i2u227_40
  4029   0014C4                     i2u227_41:
  4030   0014C4  EF69  F00A         	goto	i2l895
  4031   0014C8                     i2u227_40:
  4032   0014C8                     
  4033                           ;MCAL_Layer/Interrupt/INT_Manager.c: 81:         RB6_flag = 1;
  4034   0014C8  0E01               	movlw	1
  4035   0014CA  6E6E               	movwf	_RB6_flag^0,c	;volatile
  4036   0014CC                     
  4037                           ;MCAL_Layer/Interrupt/INT_Manager.c: 82:         RB6_ISR(1);
  4038   0014CC  0E01               	movlw	1
  4039   0014CE  EC4A  F011         	call	_RB6_ISR
  4040   0014D2                     i2l895:
  4041                           
  4042                           ;MCAL_Layer/Interrupt/INT_Manager.c: 86:     if ( (INTCONbits.RBIE == 1) && (INTCONbits.
      +                          RBIF == 1) && (PORTBbits.RB7)==0x01 && RB7_flag == 1){
  4043   0014D2  A6F2               	btfss	242,3,c	;volatile
  4044   0014D4  EF6E  F00A         	goto	i2u228_41
  4045   0014D8  EF70  F00A         	goto	i2u228_40
  4046   0014DC                     i2u228_41:
  4047   0014DC  EF8B  F00A         	goto	i2l897
  4048   0014E0                     i2u228_40:
  4049   0014E0  A0F2               	btfss	242,0,c	;volatile
  4050   0014E2  EF75  F00A         	goto	i2u229_41
  4051   0014E6  EF77  F00A         	goto	i2u229_40
  4052   0014EA                     i2u229_41:
  4053   0014EA  EF8B  F00A         	goto	i2l897
  4054   0014EE                     i2u229_40:
  4055   0014EE  AE81               	btfss	129,7,c	;volatile
  4056   0014F0  EF7C  F00A         	goto	i2u230_41
  4057   0014F4  EF7E  F00A         	goto	i2u230_40
  4058   0014F8                     i2u230_41:
  4059   0014F8  EF8B  F00A         	goto	i2l897
  4060   0014FC                     i2u230_40:
  4061   0014FC  046D               	decf	_RB7_flag^0,w,c	;volatile
  4062   0014FE  A4D8               	btfss	status,2,c
  4063   001500  EF84  F00A         	goto	i2u231_41
  4064   001504  EF86  F00A         	goto	i2u231_40
  4065   001508                     i2u231_41:
  4066   001508  EF8B  F00A         	goto	i2l897
  4067   00150C                     i2u231_40:
  4068   00150C                     
  4069                           ;MCAL_Layer/Interrupt/INT_Manager.c: 87:         RB7_flag = 0;
  4070   00150C  0E00               	movlw	0
  4071   00150E  6E6D               	movwf	_RB7_flag^0,c	;volatile
  4072   001510                     
  4073                           ;MCAL_Layer/Interrupt/INT_Manager.c: 88:         RB7_ISR(0);
  4074   001510  0E00               	movlw	0
  4075   001512  EC3D  F011         	call	_RB7_ISR
  4076   001516                     i2l897:
  4077                           
  4078                           ;MCAL_Layer/Interrupt/INT_Manager.c: 92:     if ( (INTCONbits.RBIE == 1) && (INTCONbits.
      +                          RBIF == 1) && (PORTBbits.RB7)==0x00 && RB7_flag == 0){
  4079   001516  A6F2               	btfss	242,3,c	;volatile
  4080   001518  EF90  F00A         	goto	i2u232_41
  4081   00151C  EF92  F00A         	goto	i2u232_40
  4082   001520                     i2u232_41:
  4083   001520  EFAD  F00A         	goto	i2l900
  4084   001524                     i2u232_40:
  4085   001524  A0F2               	btfss	242,0,c	;volatile
  4086   001526  EF97  F00A         	goto	i2u233_41
  4087   00152A  EF99  F00A         	goto	i2u233_40
  4088   00152E                     i2u233_41:
  4089   00152E  EFAD  F00A         	goto	i2l900
  4090   001532                     i2u233_40:
  4091   001532  BE81               	btfsc	129,7,c	;volatile
  4092   001534  EF9E  F00A         	goto	i2u234_41
  4093   001538  EFA0  F00A         	goto	i2u234_40
  4094   00153C                     i2u234_41:
  4095   00153C  EFAD  F00A         	goto	i2l900
  4096   001540                     i2u234_40:
  4097   001540  506D               	movf	_RB7_flag^0,w,c	;volatile
  4098   001542  A4D8               	btfss	status,2,c
  4099   001544  EFA6  F00A         	goto	i2u235_41
  4100   001548  EFA8  F00A         	goto	i2u235_40
  4101   00154C                     i2u235_41:
  4102   00154C  EFAD  F00A         	goto	i2l900
  4103   001550                     i2u235_40:
  4104   001550                     
  4105                           ;MCAL_Layer/Interrupt/INT_Manager.c: 93:         RB7_flag = 1;
  4106   001550  0E01               	movlw	1
  4107   001552  6E6D               	movwf	_RB7_flag^0,c	;volatile
  4108   001554                     
  4109                           ;MCAL_Layer/Interrupt/INT_Manager.c: 94:         RB7_ISR(1);
  4110   001554  0E01               	movlw	1
  4111   001556  EC3D  F011         	call	_RB7_ISR
  4112   00155A                     i2l900:
  4113   00155A  927B               	bcf	int$flags,1,c	;clear compiler interrupt flag (level 2)
  4114   00155C  0011               	retfie		f
  4115   00155E                     __end_of_InterruptManager:
  4116                           	callstack 0
  4117                           
  4118 ;; *************** function _RB7_ISR *****************
  4119 ;; Defined at:
  4120 ;;		line 177 in file "MCAL_Layer/Interrupt/INT_External.c"
  4121 ;; Parameters:    Size  Location     Type
  4122 ;;  level           1    wreg     unsigned char 
  4123 ;; Auto vars:     Size  Location     Type
  4124 ;;  level           1    0[COMRAM] unsigned char 
  4125 ;; Return value:  Size  Location     Type
  4126 ;;                  1    wreg      void 
  4127 ;; Registers used:
  4128 ;;		wreg, status,2
  4129 ;; Tracked objects:
  4130 ;;		On entry : 0/0
  4131 ;;		On exit  : 0/0
  4132 ;;		Unchanged: 0/0
  4133 ;; Data sizes:     COMRAM   BANK0   BANK1   BANK2   BANK3   BANK4   BANK5   BANK6   BANK7   BANK8   BANK9  BANK10  BANK1
      +1  BANK12  BANK13  BANK14  BANK15
  4134 ;;      Params:         0       0       0       0       0       0       0       0       0       0       0       0       
      +0       0       0       0       0
  4135 ;;      Locals:         1       0       0       0       0       0       0       0       0       0       0       0       
      +0       0       0       0       0
  4136 ;;      Temps:          0       0       0       0       0       0       0       0       0       0       0       0       
      +0       0       0       0       0
  4137 ;;      Totals:         1       0       0       0       0       0       0       0       0       0       0       0       
      +0       0       0       0       0
  4138 ;;Total ram usage:        1 bytes
  4139 ;; Hardware stack levels used: 1
  4140 ;; This function calls:
  4141 ;;		Nothing
  4142 ;; This function is called by:
  4143 ;;		_InterruptManager
  4144 ;; This function uses a non-reentrant model
  4145 ;;
  4146                           
  4147                           	psect	text21
  4148   00227A                     __ptext21:
  4149                           	callstack 0
  4150   00227A                     _RB7_ISR:
  4151                           	callstack 22
  4152                           
  4153                           ;incstack = 0
  4154                           ;RB7_ISR@level stored from wreg
  4155   00227A  6E01               	movwf	RB7_ISR@level^0,c
  4156   00227C                     
  4157                           ;MCAL_Layer/Interrupt/INT_External.c: 178:     (INTCONbits.RBIF = 0);
  4158   00227C  90F2               	bcf	242,0,c	;volatile
  4159   00227E                     
  4160                           ;MCAL_Layer/Interrupt/INT_External.c: 180:         RB7_InterruptHandler_LOW();
  4161   00227E  5001               	movf	RB7_ISR@level^0,w,c
  4162   002280  A4D8               	btfss	status,2,c
  4163   002282  EF45  F011         	goto	i2u81_41
  4164   002286  EF47  F011         	goto	i2u81_40
  4165   00228A                     i2u81_41:
  4166   00228A  EF49  F011         	goto	i2l2287
  4167   00228E                     i2u81_40:
  4168   00228E  EF49  F011         	goto	i2l721
  4169   002292                     i2l2287:
  4170   002292                     i2l721:
  4171   002292  0012               	return		;funcret
  4172   002294                     __end_of_RB7_ISR:
  4173                           	callstack 0
  4174                           
  4175 ;; *************** function _RB6_ISR *****************
  4176 ;; Defined at:
  4177 ;;		line 166 in file "MCAL_Layer/Interrupt/INT_External.c"
  4178 ;; Parameters:    Size  Location     Type
  4179 ;;  level           1    wreg     unsigned char 
  4180 ;; Auto vars:     Size  Location     Type
  4181 ;;  level           1    0[COMRAM] unsigned char 
  4182 ;; Return value:  Size  Location     Type
  4183 ;;                  1    wreg      void 
  4184 ;; Registers used:
  4185 ;;		wreg, status,2
  4186 ;; Tracked objects:
  4187 ;;		On entry : 0/0
  4188 ;;		On exit  : 0/0
  4189 ;;		Unchanged: 0/0
  4190 ;; Data sizes:     COMRAM   BANK0   BANK1   BANK2   BANK3   BANK4   BANK5   BANK6   BANK7   BANK8   BANK9  BANK10  BANK1
      +1  BANK12  BANK13  BANK14  BANK15
  4191 ;;      Params:         0       0       0       0       0       0       0       0       0       0       0       0       
      +0       0       0       0       0
  4192 ;;      Locals:         1       0       0       0       0       0       0       0       0       0       0       0       
      +0       0       0       0       0
  4193 ;;      Temps:          0       0       0       0       0       0       0       0       0       0       0       0       
      +0       0       0       0       0
  4194 ;;      Totals:         1       0       0       0       0       0       0       0       0       0       0       0       
      +0       0       0       0       0
  4195 ;;Total ram usage:        1 bytes
  4196 ;; Hardware stack levels used: 1
  4197 ;; This function calls:
  4198 ;;		Nothing
  4199 ;; This function is called by:
  4200 ;;		_InterruptManager
  4201 ;; This function uses a non-reentrant model
  4202 ;;
  4203                           
  4204                           	psect	text22
  4205   002294                     __ptext22:
  4206                           	callstack 0
  4207   002294                     _RB6_ISR:
  4208                           	callstack 22
  4209                           
  4210                           ;incstack = 0
  4211                           ;RB6_ISR@level stored from wreg
  4212   002294  6E01               	movwf	RB6_ISR@level^0,c
  4213   002296                     
  4214                           ;MCAL_Layer/Interrupt/INT_External.c: 167:     (INTCONbits.RBIF = 0);
  4215   002296  90F2               	bcf	242,0,c	;volatile
  4216   002298                     
  4217                           ;MCAL_Layer/Interrupt/INT_External.c: 169:         RB6_InterruptHandler_LOW();
  4218   002298  5001               	movf	RB6_ISR@level^0,w,c
  4219   00229A  A4D8               	btfss	status,2,c
  4220   00229C  EF52  F011         	goto	i2u80_41
  4221   0022A0  EF54  F011         	goto	i2u80_40
  4222   0022A4                     i2u80_41:
  4223   0022A4  EF56  F011         	goto	i2l2277
  4224   0022A8                     i2u80_40:
  4225   0022A8  EF56  F011         	goto	i2l714
  4226   0022AC                     i2l2277:
  4227   0022AC                     i2l714:
  4228   0022AC  0012               	return		;funcret
  4229   0022AE                     __end_of_RB6_ISR:
  4230                           	callstack 0
  4231                           
  4232 ;; *************** function _RB5_ISR *****************
  4233 ;; Defined at:
  4234 ;;		line 155 in file "MCAL_Layer/Interrupt/INT_External.c"
  4235 ;; Parameters:    Size  Location     Type
  4236 ;;  level           1    wreg     unsigned char 
  4237 ;; Auto vars:     Size  Location     Type
  4238 ;;  level           1    0[COMRAM] unsigned char 
  4239 ;; Return value:  Size  Location     Type
  4240 ;;                  1    wreg      void 
  4241 ;; Registers used:
  4242 ;;		wreg, status,2
  4243 ;; Tracked objects:
  4244 ;;		On entry : 0/0
  4245 ;;		On exit  : 0/0
  4246 ;;		Unchanged: 0/0
  4247 ;; Data sizes:     COMRAM   BANK0   BANK1   BANK2   BANK3   BANK4   BANK5   BANK6   BANK7   BANK8   BANK9  BANK10  BANK1
      +1  BANK12  BANK13  BANK14  BANK15
  4248 ;;      Params:         0       0       0       0       0       0       0       0       0       0       0       0       
      +0       0       0       0       0
  4249 ;;      Locals:         1       0       0       0       0       0       0       0       0       0       0       0       
      +0       0       0       0       0
  4250 ;;      Temps:          0       0       0       0       0       0       0       0       0       0       0       0       
      +0       0       0       0       0
  4251 ;;      Totals:         1       0       0       0       0       0       0       0       0       0       0       0       
      +0       0       0       0       0
  4252 ;;Total ram usage:        1 bytes
  4253 ;; Hardware stack levels used: 1
  4254 ;; This function calls:
  4255 ;;		Nothing
  4256 ;; This function is called by:
  4257 ;;		_InterruptManager
  4258 ;; This function uses a non-reentrant model
  4259 ;;
  4260                           
  4261                           	psect	text23
  4262   0022AE                     __ptext23:
  4263                           	callstack 0
  4264   0022AE                     _RB5_ISR:
  4265                           	callstack 22
  4266                           
  4267                           ;incstack = 0
  4268                           ;RB5_ISR@level stored from wreg
  4269   0022AE  6E01               	movwf	RB5_ISR@level^0,c
  4270   0022B0                     
  4271                           ;MCAL_Layer/Interrupt/INT_External.c: 156:     (INTCONbits.RBIF = 0);
  4272   0022B0  90F2               	bcf	242,0,c	;volatile
  4273   0022B2                     
  4274                           ;MCAL_Layer/Interrupt/INT_External.c: 158:         RB5_InterruptHandler_LOW();
  4275   0022B2  5001               	movf	RB5_ISR@level^0,w,c
  4276   0022B4  A4D8               	btfss	status,2,c
  4277   0022B6  EF5F  F011         	goto	i2u79_41
  4278   0022BA  EF61  F011         	goto	i2u79_40
  4279   0022BE                     i2u79_41:
  4280   0022BE  EF63  F011         	goto	i2l2267
  4281   0022C2                     i2u79_40:
  4282   0022C2  EF63  F011         	goto	i2l707
  4283   0022C6                     i2l2267:
  4284   0022C6                     i2l707:
  4285   0022C6  0012               	return		;funcret
  4286   0022C8                     __end_of_RB5_ISR:
  4287                           	callstack 0
  4288                           
  4289 ;; *************** function _RB4_ISR *****************
  4290 ;; Defined at:
  4291 ;;		line 144 in file "MCAL_Layer/Interrupt/INT_External.c"
  4292 ;; Parameters:    Size  Location     Type
  4293 ;;  level           1    wreg     unsigned char 
  4294 ;; Auto vars:     Size  Location     Type
  4295 ;;  level           1    0[COMRAM] unsigned char 
  4296 ;; Return value:  Size  Location     Type
  4297 ;;                  1    wreg      void 
  4298 ;; Registers used:
  4299 ;;		wreg, status,2
  4300 ;; Tracked objects:
  4301 ;;		On entry : 0/0
  4302 ;;		On exit  : 0/0
  4303 ;;		Unchanged: 0/0
  4304 ;; Data sizes:     COMRAM   BANK0   BANK1   BANK2   BANK3   BANK4   BANK5   BANK6   BANK7   BANK8   BANK9  BANK10  BANK1
      +1  BANK12  BANK13  BANK14  BANK15
  4305 ;;      Params:         0       0       0       0       0       0       0       0       0       0       0       0       
      +0       0       0       0       0
  4306 ;;      Locals:         1       0       0       0       0       0       0       0       0       0       0       0       
      +0       0       0       0       0
  4307 ;;      Temps:          0       0       0       0       0       0       0       0       0       0       0       0       
      +0       0       0       0       0
  4308 ;;      Totals:         1       0       0       0       0       0       0       0       0       0       0       0       
      +0       0       0       0       0
  4309 ;;Total ram usage:        1 bytes
  4310 ;; Hardware stack levels used: 1
  4311 ;; This function calls:
  4312 ;;		Nothing
  4313 ;; This function is called by:
  4314 ;;		_InterruptManager
  4315 ;; This function uses a non-reentrant model
  4316 ;;
  4317                           
  4318                           	psect	text24
  4319   0022C8                     __ptext24:
  4320                           	callstack 0
  4321   0022C8                     _RB4_ISR:
  4322                           	callstack 22
  4323                           
  4324                           ;incstack = 0
  4325                           ;RB4_ISR@level stored from wreg
  4326   0022C8  6E01               	movwf	RB4_ISR@level^0,c
  4327   0022CA                     
  4328                           ;MCAL_Layer/Interrupt/INT_External.c: 145:     (INTCONbits.RBIF = 0);
  4329   0022CA  90F2               	bcf	242,0,c	;volatile
  4330   0022CC                     
  4331                           ;MCAL_Layer/Interrupt/INT_External.c: 147:         RB4_InterruptHandler_LOW();
  4332   0022CC  5001               	movf	RB4_ISR@level^0,w,c
  4333   0022CE  A4D8               	btfss	status,2,c
  4334   0022D0  EF6C  F011         	goto	i2u78_41
  4335   0022D4  EF6E  F011         	goto	i2u78_40
  4336   0022D8                     i2u78_41:
  4337   0022D8  EF70  F011         	goto	i2l2257
  4338   0022DC                     i2u78_40:
  4339   0022DC  EF70  F011         	goto	i2l700
  4340   0022E0                     i2l2257:
  4341   0022E0                     i2l700:
  4342   0022E0  0012               	return		;funcret
  4343   0022E2                     __end_of_RB4_ISR:
  4344                           	callstack 0
  4345                           
  4346 ;; *************** function _INT2_ISR *****************
  4347 ;; Defined at:
  4348 ;;		line 84 in file "MCAL_Layer/Interrupt/INT_External.c"
  4349 ;; Parameters:    Size  Location     Type
  4350 ;;		None
  4351 ;; Auto vars:     Size  Location     Type
  4352 ;;		None
  4353 ;; Return value:  Size  Location     Type
  4354 ;;                  1    wreg      void 
  4355 ;; Registers used:
  4356 ;;		None
  4357 ;; Tracked objects:
  4358 ;;		On entry : 0/0
  4359 ;;		On exit  : 0/0
  4360 ;;		Unchanged: 0/0
  4361 ;; Data sizes:     COMRAM   BANK0   BANK1   BANK2   BANK3   BANK4   BANK5   BANK6   BANK7   BANK8   BANK9  BANK10  BANK1
      +1  BANK12  BANK13  BANK14  BANK15
  4362 ;;      Params:         0       0       0       0       0       0       0       0       0       0       0       0       
      +0       0       0       0       0
  4363 ;;      Locals:         0       0       0       0       0       0       0       0       0       0       0       0       
      +0       0       0       0       0
  4364 ;;      Temps:          0       0       0       0       0       0       0       0       0       0       0       0       
      +0       0       0       0       0
  4365 ;;      Totals:         0       0       0       0       0       0       0       0       0       0       0       0       
      +0       0       0       0       0
  4366 ;;Total ram usage:        0 bytes
  4367 ;; Hardware stack levels used: 1
  4368 ;; This function calls:
  4369 ;;		Nothing
  4370 ;; This function is called by:
  4371 ;;		_InterruptManager
  4372 ;; This function uses a non-reentrant model
  4373 ;;
  4374                           
  4375                           	psect	text25
  4376   0022F4                     __ptext25:
  4377                           	callstack 0
  4378   0022F4                     _INT2_ISR:
  4379                           	callstack 22
  4380   0022F4                     
  4381                           ;MCAL_Layer/Interrupt/INT_External.c: 86:     (INTCON3bits.INT2IF = 0);
  4382   0022F4  92F0               	bcf	240,1,c	;volatile
  4383   0022F6  0012               	return		;funcret
  4384   0022F8                     __end_of_INT2_ISR:
  4385                           	callstack 0
  4386                           
  4387 ;; *************** function _INT1_ISR *****************
  4388 ;; Defined at:
  4389 ;;		line 73 in file "MCAL_Layer/Interrupt/INT_External.c"
  4390 ;; Parameters:    Size  Location     Type
  4391 ;;		None
  4392 ;; Auto vars:     Size  Location     Type
  4393 ;;		None
  4394 ;; Return value:  Size  Location     Type
  4395 ;;                  1    wreg      void 
  4396 ;; Registers used:
  4397 ;;		None
  4398 ;; Tracked objects:
  4399 ;;		On entry : 0/0
  4400 ;;		On exit  : 0/0
  4401 ;;		Unchanged: 0/0
  4402 ;; Data sizes:     COMRAM   BANK0   BANK1   BANK2   BANK3   BANK4   BANK5   BANK6   BANK7   BANK8   BANK9  BANK10  BANK1
      +1  BANK12  BANK13  BANK14  BANK15
  4403 ;;      Params:         0       0       0       0       0       0       0       0       0       0       0       0       
      +0       0       0       0       0
  4404 ;;      Locals:         0       0       0       0       0       0       0       0       0       0       0       0       
      +0       0       0       0       0
  4405 ;;      Temps:          0       0       0       0       0       0       0       0       0       0       0       0       
      +0       0       0       0       0
  4406 ;;      Totals:         0       0       0       0       0       0       0       0       0       0       0       0       
      +0       0       0       0       0
  4407 ;;Total ram usage:        0 bytes
  4408 ;; Hardware stack levels used: 1
  4409 ;; This function calls:
  4410 ;;		Nothing
  4411 ;; This function is called by:
  4412 ;;		_InterruptManager
  4413 ;; This function uses a non-reentrant model
  4414 ;;
  4415                           
  4416                           	psect	text26
  4417   0022F8                     __ptext26:
  4418                           	callstack 0
  4419   0022F8                     _INT1_ISR:
  4420                           	callstack 22
  4421   0022F8                     
  4422                           ;MCAL_Layer/Interrupt/INT_External.c: 75:     (INTCON3bits.INT1IF = 0);
  4423   0022F8  90F0               	bcf	240,0,c	;volatile
  4424   0022FA  0012               	return		;funcret
  4425   0022FC                     __end_of_INT1_ISR:
  4426                           	callstack 0
  4427                           
  4428 ;; *************** function _INT0_ISR *****************
  4429 ;; Defined at:
  4430 ;;		line 62 in file "MCAL_Layer/Interrupt/INT_External.c"
  4431 ;; Parameters:    Size  Location     Type
  4432 ;;		None
  4433 ;; Auto vars:     Size  Location     Type
  4434 ;;		None
  4435 ;; Return value:  Size  Location     Type
  4436 ;;                  1    wreg      void 
  4437 ;; Registers used:
  4438 ;;		None
  4439 ;; Tracked objects:
  4440 ;;		On entry : 0/0
  4441 ;;		On exit  : 0/0
  4442 ;;		Unchanged: 0/0
  4443 ;; Data sizes:     COMRAM   BANK0   BANK1   BANK2   BANK3   BANK4   BANK5   BANK6   BANK7   BANK8   BANK9  BANK10  BANK1
      +1  BANK12  BANK13  BANK14  BANK15
  4444 ;;      Params:         0       0       0       0       0       0       0       0       0       0       0       0       
      +0       0       0       0       0
  4445 ;;      Locals:         0       0       0       0       0       0       0       0       0       0       0       0       
      +0       0       0       0       0
  4446 ;;      Temps:          0       0       0       0       0       0       0       0       0       0       0       0       
      +0       0       0       0       0
  4447 ;;      Totals:         0       0       0       0       0       0       0       0       0       0       0       0       
      +0       0       0       0       0
  4448 ;;Total ram usage:        0 bytes
  4449 ;; Hardware stack levels used: 1
  4450 ;; This function calls:
  4451 ;;		Nothing
  4452 ;; This function is called by:
  4453 ;;		_InterruptManager
  4454 ;; This function uses a non-reentrant model
  4455 ;;
  4456                           
  4457                           	psect	text27
  4458   0022FC                     __ptext27:
  4459                           	callstack 0
  4460   0022FC                     _INT0_ISR:
  4461                           	callstack 22
  4462   0022FC                     
  4463                           ;MCAL_Layer/Interrupt/INT_External.c: 64:     (INTCONbits.INT0IF = 0);
  4464   0022FC  92F2               	bcf	242,1,c	;volatile
  4465   0022FE  0012               	return		;funcret
  4466   002300                     __end_of_INT0_ISR:
  4467                           	callstack 0
  4468                           
  4469                           	psect	rparam
  4470   000000                     
  4471                           	psect	temp
  4472   00007B                     btemp:
  4473                           	callstack 0
  4474   00007B                     	ds	1
  4475   000000                     int$flags	set	btemp
  4476   000000                     wtemp8	set	btemp+1
  4477   000000                     ttemp5	set	btemp+1
  4478   000000                     ttemp6	set	btemp+4
  4479   000000                     ttemp7	set	btemp+8
  4480                           
  4481                           	psect	config
  4482                           
  4483                           ; Padding undefined space
  4484   300000                     	org	3145728
  4485   300000  FF                 	db	255
  4486                           
  4487                           ;Config register CONFIG1H @ 0x300001
  4488                           ;	Oscillator Selection bits
  4489                           ;	OSC = HS, HS oscillator
  4490                           ;	Fail-Safe Clock Monitor Enable bit
  4491                           ;	FCMEN = OFF, Fail-Safe Clock Monitor disabled
  4492                           ;	Internal/External Oscillator Switchover bit
  4493                           ;	IESO = OFF, Oscillator Switchover mode disabled
  4494   300001                     	org	3145729
  4495   300001  02                 	db	2
  4496                           
  4497                           ;Config register CONFIG2L @ 0x300002
  4498                           ;	Power-up Timer Enable bit
  4499                           ;	PWRT = OFF, PWRT disabled
  4500                           ;	Brown-out Reset Enable bits
  4501                           ;	BOREN = OFF, Brown-out Reset disabled in hardware and software
  4502                           ;	Brown Out Reset Voltage bits
  4503                           ;	BORV = 1, 
  4504   300002                     	org	3145730
  4505   300002  09                 	db	9
  4506                           
  4507                           ;Config register CONFIG2H @ 0x300003
  4508                           ;	Watchdog Timer Enable bit
  4509                           ;	WDT = OFF, WDT disabled (control is placed on the SWDTEN bit)
  4510                           ;	Watchdog Timer Postscale Select bits
  4511                           ;	WDTPS = 32768, 1:32768
  4512   300003                     	org	3145731
  4513   300003  1E                 	db	30
  4514                           
  4515                           ; Padding undefined space
  4516   300004                     	org	3145732
  4517   300004  FF                 	db	255
  4518                           
  4519                           ;Config register CONFIG3H @ 0x300005
  4520                           ;	CCP2 MUX bit
  4521                           ;	CCP2MX = PORTC, CCP2 input/output is multiplexed with RC1
  4522                           ;	PORTB A/D Enable bit
  4523                           ;	PBADEN = OFF, PORTB<4:0> pins are configured as digital I/O on Reset
  4524                           ;	Low-Power Timer1 Oscillator Enable bit
  4525                           ;	LPT1OSC = OFF, Timer1 configured for higher power operation
  4526                           ;	MCLR Pin Enable bit
  4527                           ;	MCLRE = ON, MCLR pin enabled; RE3 input pin disabled
  4528   300005                     	org	3145733
  4529   300005  81                 	db	129
  4530                           
  4531                           ;Config register CONFIG4L @ 0x300006
  4532                           ;	Stack Full/Underflow Reset Enable bit
  4533                           ;	STVREN = ON, Stack full/underflow will cause Reset
  4534                           ;	Single-Supply ICSP Enable bit
  4535                           ;	LVP = OFF, Single-Supply ICSP disabled
  4536                           ;	Extended Instruction Set Enable bit
  4537                           ;	XINST = OFF, Instruction set extension and Indexed Addressing mode disabled (Legacy mo
      +                          de)
  4538                           ;	Background Debugger Enable bit
  4539                           ;	DEBUG = 0x1, unprogrammed default
  4540   300006                     	org	3145734
  4541   300006  81                 	db	129
  4542                           
  4543                           ; Padding undefined space
  4544   300007                     	org	3145735
  4545   300007  FF                 	db	255
  4546                           
  4547                           ;Config register CONFIG5L @ 0x300008
  4548                           ;	Code Protection bit
  4549                           ;	CP0 = OFF, Block 0 (000800-003FFFh) not code-protected
  4550                           ;	Code Protection bit
  4551                           ;	CP1 = OFF, Block 1 (004000-007FFFh) not code-protected
  4552                           ;	Code Protection bit
  4553                           ;	CP2 = OFF, Block 2 (008000-00BFFFh) not code-protected
  4554                           ;	Code Protection bit
  4555                           ;	CP3 = OFF, Block 3 (00C000-00FFFFh) not code-protected
  4556   300008                     	org	3145736
  4557   300008  0F                 	db	15
  4558                           
  4559                           ;Config register CONFIG5H @ 0x300009
  4560                           ;	Boot Block Code Protection bit
  4561                           ;	CPB = OFF, Boot block (000000-0007FFh) not code-protected
  4562                           ;	Data EEPROM Code Protection bit
  4563                           ;	CPD = OFF, Data EEPROM not code-protected
  4564   300009                     	org	3145737
  4565   300009  C0                 	db	192
  4566                           
  4567                           ;Config register CONFIG6L @ 0x30000A
  4568                           ;	Write Protection bit
  4569                           ;	WRT0 = OFF, Block 0 (000800-003FFFh) not write-protected
  4570                           ;	Write Protection bit
  4571                           ;	WRT1 = OFF, Block 1 (004000-007FFFh) not write-protected
  4572                           ;	Write Protection bit
  4573                           ;	WRT2 = OFF, Block 2 (008000-00BFFFh) not write-protected
  4574                           ;	Write Protection bit
  4575                           ;	WRT3 = OFF, Block 3 (00C000-00FFFFh) not write-protected
  4576   30000A                     	org	3145738
  4577   30000A  0F                 	db	15
  4578                           
  4579                           ;Config register CONFIG6H @ 0x30000B
  4580                           ;	Configuration Register Write Protection bit
  4581                           ;	WRTC = OFF, Configuration registers (300000-3000FFh) not write-protected
  4582                           ;	Boot Block Write Protection bit
  4583                           ;	WRTB = OFF, Boot Block (000000-0007FFh) not write-protected
  4584                           ;	Data EEPROM Write Protection bit
  4585                           ;	WRTD = OFF, Data EEPROM not write-protected
  4586   30000B                     	org	3145739
  4587   30000B  E0                 	db	224
  4588                           
  4589                           ;Config register CONFIG7L @ 0x30000C
  4590                           ;	Table Read Protection bit
  4591                           ;	EBTR0 = OFF, Block 0 (000800-003FFFh) not protected from table reads executed in other
      +                           blocks
  4592                           ;	Table Read Protection bit
  4593                           ;	EBTR1 = OFF, Block 1 (004000-007FFFh) not protected from table reads executed in other
      +                           blocks
  4594                           ;	Table Read Protection bit
  4595                           ;	EBTR2 = OFF, Block 2 (008000-00BFFFh) not protected from table reads executed in other
      +                           blocks
  4596                           ;	Table Read Protection bit
  4597                           ;	EBTR3 = OFF, Block 3 (00C000-00FFFFh) not protected from table reads executed in other
      +                           blocks
  4598   30000C                     	org	3145740
  4599   30000C  0F                 	db	15
  4600                           
  4601                           ;Config register CONFIG7H @ 0x30000D
  4602                           ;	Boot Block Table Read Protection bit
  4603                           ;	EBTRB = OFF, Boot Block (000000-0007FFh) not protected from table reads executed in ot
      +                          her blocks
  4604   30000D                     	org	3145741
  4605   30000D  40                 	db	64
  4606                           tosu	equ	0xFFF
  4607                           tosh	equ	0xFFE
  4608                           tosl	equ	0xFFD
  4609                           stkptr	equ	0xFFC
  4610                           pclatu	equ	0xFFB
  4611                           pclath	equ	0xFFA
  4612                           pcl	equ	0xFF9
  4613                           tblptru	equ	0xFF8
  4614                           tblptrh	equ	0xFF7
  4615                           tblptrl	equ	0xFF6
  4616                           tablat	equ	0xFF5
  4617                           prodh	equ	0xFF4
  4618                           prodl	equ	0xFF3
  4619                           indf0	equ	0xFEF
  4620                           postinc0	equ	0xFEE
  4621                           postdec0	equ	0xFED
  4622                           preinc0	equ	0xFEC
  4623                           plusw0	equ	0xFEB
  4624                           fsr0h	equ	0xFEA
  4625                           fsr0l	equ	0xFE9
  4626                           wreg	equ	0xFE8
  4627                           indf1	equ	0xFE7
  4628                           postinc1	equ	0xFE6
  4629                           postdec1	equ	0xFE5
  4630                           preinc1	equ	0xFE4
  4631                           plusw1	equ	0xFE3
  4632                           fsr1h	equ	0xFE2
  4633                           fsr1l	equ	0xFE1
  4634                           bsr	equ	0xFE0
  4635                           indf2	equ	0xFDF
  4636                           postinc2	equ	0xFDE
  4637                           postdec2	equ	0xFDD
  4638                           preinc2	equ	0xFDC
  4639                           plusw2	equ	0xFDB
  4640                           fsr2h	equ	0xFDA
  4641                           fsr2l	equ	0xFD9
  4642                           status	equ	0xFD8

Data Sizes:
    Strings     17
    Constant    16
    Data        52
    BSS         46
    Persistent  0
    Stack       0

Auto Spaces:
    Space          Size  Autos    Used
    COMRAM          126     48     122
    BANK0           128      0      24
    BANK1           256      0       0
    BANK2           256      0       0
    BANK3           256      0       0
    BANK4           256      0       0
    BANK5           256      0       0
    BANK6           256      0       0
    BANK7           256      0       0
    BANK8           256      0       0
    BANK9           256      0       0
    BANK10          256      0       0
    BANK11          256      0       0
    BANK12          256      0       0
    BANK13          256      0       0
    BANK14          256      0       0
    BANK15          128      0       0

Pointer List with Targets:

    f$.$buffer	PTR unsigned char  size(2) Largest target is 0

    f$.$source	PTR const unsigned char  size(2) Largest target is 0

    GPIO_PIN_Direction_Init@_pin_config	PTR const struct . size(1) Largest target is 10
		 -> keypad(BANK0[8]), keypad$column_pin(BANK0[4]), keypad$row_pin(BANK0[4]), lcd(COMRAM[10]), 
		 -> lcd$data_pins(COMRAM[8]), LED_Init@led_config(COMRAM[1]), RELAY_Init@relay_info(COMRAM[1]), 

    GPIO_PIN_Init@_pin_config	PTR const struct . size(1) Largest target is 10
		 -> keypad(BANK0[8]), keypad$row_pin(BANK0[4]), lcd(COMRAM[10]), lcd$data_pins(COMRAM[8]), 
		 -> LED_Init@led_config(COMRAM[1]), RELAY_Init@relay_info(COMRAM[1]), 

    GPIO_PIN_Read_Logic@_pin_config	PTR const struct . size(1) Largest target is 8
		 -> keypad(BANK0[8]), keypad$column_pin(BANK0[4]), 

    GPIO_PIN_Read_Logic@logic_status	PTR enum E2657 size(1) Largest target is 1
		 -> Button_Read@logic(COMRAM[1]), KEYPAD_Get_Number@logic(COMRAM[1]), 

    GPIO_PIN_Write_Logic@_pin_config	PTR const struct . size(1) Largest target is 10
		 -> keypad(BANK0[8]), keypad$row_pin(BANK0[4]), lcd(COMRAM[10]), lcd$data_pins(COMRAM[8]), 
		 -> LED_Init@led_config(COMRAM[1]), LED_Turn_Off@led_config(COMRAM[1]), LED_Turn_On@led_config(COMRAM[1]), RELAY_Init@relay_info(COMRAM[1]), 
		 -> RELAY_Turn_OFF@relay_info(COMRAM[1]), RELAY_Turn_ON@relay_info(COMRAM[1]), 

    INT0_InterruptHandler	PTR FTN()void  size(2) Largest target is 1
		 -> NULL(), 

    INT1_InterruptHandler	PTR FTN()void  size(2) Largest target is 1
		 -> NULL(), 

    INT2_InterruptHandler	PTR FTN()void  size(2) Largest target is 1
		 -> NULL(), 

    Interrupt_INTx_Handler@intx$External_Interrupt_Handler	PTR FTN()void  size(2) Largest target is 0

    Interrupt_RBx_Handler@intx$External_Interrupt_Handler_High	PTR FTN()void  size(2) Largest target is 0

    Interrupt_RBx_Handler@intx$External_Interrupt_Handler_Low	PTR FTN()void  size(2) Largest target is 0

    INTx_Disable@intx$External_Interrupt_Handler	PTR FTN()void  size(2) Largest target is 0

    INTx_Edge_Init@intx$External_Interrupt_Handler	PTR FTN()void  size(2) Largest target is 0

    INTx_Enable@intx$External_Interrupt_Handler	PTR FTN()void  size(2) Largest target is 0

    INTx_Flag_Clear@intx$External_Interrupt_Handler	PTR FTN()void  size(2) Largest target is 0

    INTx_PIN_Init@intx$External_Interrupt_Handler	PTR FTN()void  size(2) Largest target is 0

    KEYPAD_Get_Number@keypad	PTR const struct . size(1) Largest target is 8
		 -> keypad(BANK0[8]), 

    KEYPAD_Get_Number@number	PTR unsigned char  size(1) Largest target is 3
		 -> first_num(COMRAM[3]), second_num(COMRAM[3]), 

    KEYPAD_Init@keypad	PTR const struct . size(1) Largest target is 8
		 -> keypad(BANK0[8]), 

    LAT_REG	PTR volatile unsigned char [5] size(2) Largest target is 1
		 -> LATA(BITBIGSFRllll[1]), LATB(BITBIGSFRlllh[1]), LATC(BITBIGSFRlllh[1]), LATD(BITBIGSFRlllh[1]), 
		 -> LATE(BITBIGSFRlllh[1]), 

    LCD_4BITS_Send_Command@lcd	PTR const struct . size(1) Largest target is 10
		 -> lcd(COMRAM[10]), 

    LCD_4BITS_Send_Data@lcd	PTR const struct . size(1) Largest target is 10
		 -> lcd(COMRAM[10]), 

    LCD_4BITS_Send_ENABLE@lcd	PTR const struct . size(1) Largest target is 10
		 -> lcd(COMRAM[10]), 

    LCD_8BITS_Init@lcd	PTR const struct . size(1) Largest target is 10
		 -> lcd(COMRAM[10]), 

    LCD_8BITS_Send_Char@lcd	PTR const struct . size(1) Largest target is 10
		 -> lcd(COMRAM[10]), 

    LCD_8BITS_Send_Command@lcd	PTR const struct . size(1) Largest target is 10
		 -> lcd(COMRAM[10]), 

    LCD_8BITS_Send_ENABLE@lcd	PTR const struct . size(1) Largest target is 10
		 -> lcd(COMRAM[10]), 

    LCD_8BITS_Send_Number@lcd	PTR const struct . size(1) Largest target is 10
		 -> lcd(COMRAM[10]), 

    LCD_8BITS_Send_String@lcd	PTR const struct . size(1) Largest target is 10
		 -> lcd(COMRAM[10]), 

    LCD_8BITS_Send_String@string	PTR unsigned char  size(2) Largest target is 14
		 -> LCD_4BITS_Send_Number@str(COMRAM[10]), LCD_8BITS_Send_Number@str(COMRAM[10]), STR_4(CODE[14]), STR_5(CODE[14]), 

    PORT_REG	PTR volatile unsigned char [5] size(2) Largest target is 1
		 -> PORTA(BITBIGSFRllll[1]), PORTB(BITBIGSFRllll[1]), PORTC(BITBIGSFRllll[1]), PORTD(BITBIGSFRllll[1]), 
		 -> PORTE(BITBIGSFRllll[1]), 

    RB4_InterruptHandler_HIGH	PTR FTN()void  size(2) Largest target is 1
		 -> NULL(), 

    RB4_InterruptHandler_LOW	PTR FTN()void  size(2) Largest target is 1
		 -> NULL(), 

    RB5_InterruptHandler_HIGH	PTR FTN()void  size(2) Largest target is 1
		 -> NULL(), 

    RB5_InterruptHandler_LOW	PTR FTN()void  size(2) Largest target is 1
		 -> NULL(), 

    RB6_InterruptHandler_HIGH	PTR FTN()void  size(2) Largest target is 1
		 -> NULL(), 

    RB6_InterruptHandler_LOW	PTR FTN()void  size(2) Largest target is 1
		 -> NULL(), 

    RB7_InterruptHandler_HIGH	PTR FTN()void  size(2) Largest target is 1
		 -> NULL(), 

    RB7_InterruptHandler_LOW	PTR FTN()void  size(2) Largest target is 1
		 -> NULL(), 

    RBx_Init@intx$External_Interrupt_Handler_High	PTR FTN()void  size(2) Largest target is 0

    RBx_Init@intx$External_Interrupt_Handler_Low	PTR FTN()void  size(2) Largest target is 0

    S1188$External_Interrupt_Handler	PTR FTN()void  size(2) Largest target is 0

    S1296$External_Interrupt_Handler_High	PTR FTN()void  size(2) Largest target is 0

    S1296$External_Interrupt_Handler_Low	PTR FTN()void  size(2) Largest target is 0

    S2236$buffer	PTR unsigned char  size(2) Largest target is 0

    S2236$source	PTR const unsigned char  size(2) Largest target is 0

    sp__memset	PTR void  size(2) Largest target is 0

    TRIS_REG	PTR volatile unsigned char [5] size(2) Largest target is 1
		 -> TRISA(BITBIGSFRllll[1]), TRISB(ABS[1]), TRISC(ABS[1]), TRISD(ABS[1]), 
		 -> TRISE(ABS[1]), 

    vfprintf$0	PTR struct _IO_FILE size(1) Largest target is 12
		 -> sprintf@f(COMRAM[12]), 

    vfprintf$1	PTR const unsigned char  size(1) Largest target is 3
		 -> STR_1(CODE[3]), STR_2(CODE[3]), STR_3(CODE[3]), 

    vfprintf$2	PTR PTR void  size(1) Largest target is 1
		 -> sprintf@ap(COMRAM[1]), 


Critical Paths under _main in COMRAM

    _main->_Get_Second_Number
    _LCD_8BITS_Init->_LCD_8BITS_Send_Command
    _LCD_4BITS_Send_Command->_LCD_4BITS_Send_Data
    _LCD_4BITS_Send_ENABLE->_GPIO_PIN_Write_Logic
    _LCD_4BITS_Send_Data->_GPIO_PIN_Write_Logic
    _KEYPAD_Init->_GPIO_PIN_Init
    _GPIO_PIN_Init->_GPIO_PIN_Write_Logic
    _Get_Second_Number->_Get_First_Number
    _Get_First_Number->_LCD_8BITS_Send_Number
    _LCD_8BITS_Send_Number->_LCD_8BITS_Send_String
    _LCD_8BITS_Send_String->_LCD_8BITS_Send_Char
    _LCD_8BITS_Send_Char->_LCD_8BITS_Send_ENABLE
    _LCD_8BITS_Send_Command->_LCD_8BITS_Send_ENABLE
    _LCD_8BITS_Send_ENABLE->_GPIO_PIN_Write_Logic
    _KEYPAD_Get_Number->_GPIO_PIN_Write_Logic

Critical Paths under _InterruptManager in COMRAM

    _InterruptManager->_RB4_ISR
    _InterruptManager->_RB5_ISR
    _InterruptManager->_RB6_ISR
    _InterruptManager->_RB7_ISR

Critical Paths under _main in BANK0

    None.

Critical Paths under _InterruptManager in BANK0

    None.

Critical Paths under _main in BANK1

    None.

Critical Paths under _InterruptManager in BANK1

    None.

Critical Paths under _main in BANK2

    None.

Critical Paths under _InterruptManager in BANK2

    None.

Critical Paths under _main in BANK3

    None.

Critical Paths under _InterruptManager in BANK3

    None.

Critical Paths under _main in BANK4

    None.

Critical Paths under _InterruptManager in BANK4

    None.

Critical Paths under _main in BANK5

    None.

Critical Paths under _InterruptManager in BANK5

    None.

Critical Paths under _main in BANK6

    None.

Critical Paths under _InterruptManager in BANK6

    None.

Critical Paths under _main in BANK7

    None.

Critical Paths under _InterruptManager in BANK7

    None.

Critical Paths under _main in BANK8

    None.

Critical Paths under _InterruptManager in BANK8

    None.

Critical Paths under _main in BANK9

    None.

Critical Paths under _InterruptManager in BANK9

    None.

Critical Paths under _main in BANK10

    None.

Critical Paths under _InterruptManager in BANK10

    None.

Critical Paths under _main in BANK11

    None.

Critical Paths under _InterruptManager in BANK11

    None.

Critical Paths under _main in BANK12

    None.

Critical Paths under _InterruptManager in BANK12

    None.

Critical Paths under _main in BANK13

    None.

Critical Paths under _InterruptManager in BANK13

    None.

Critical Paths under _main in BANK14

    None.

Critical Paths under _InterruptManager in BANK14

    None.

Critical Paths under _main in BANK15

    None.

Critical Paths under _InterruptManager in BANK15

    None.

Call Graph Tables:

 ---------------------------------------------------------------------------------
 (Depth) Function   	        Calls       Base Space   Used Autos Params    Refs
 ---------------------------------------------------------------------------------
 (0) _main                                                 1     1      0  215964
                   _Get_First_Number
                  _Get_Second_Number
                        _KEYPAD_Init
                     _LCD_8BITS_Init
 ---------------------------------------------------------------------------------
 (1) _LCD_8BITS_Init                                       4     3      1   38633
                                             17 COMRAM     4     3      1
                      _GPIO_PIN_Init
             _LCD_4BITS_Send_Command
             _LCD_8BITS_Send_Command
 ---------------------------------------------------------------------------------
 (2) _LCD_4BITS_Send_Command                               3     1      2   18560
                                             12 COMRAM     3     1      2
               _GPIO_PIN_Write_Logic
                _LCD_4BITS_Send_Data
              _LCD_4BITS_Send_ENABLE
 ---------------------------------------------------------------------------------
 (3) _LCD_4BITS_Send_ENABLE                                2     1      1    5286
                                              9 COMRAM     2     1      1
               _GPIO_PIN_Write_Logic
 ---------------------------------------------------------------------------------
 (3) _LCD_4BITS_Send_Data                                  3     1      2    5724
                                              9 COMRAM     3     1      2
               _GPIO_PIN_Write_Logic
 ---------------------------------------------------------------------------------
 (1) _KEYPAD_Init                                          4     3      1    7635
                                             12 COMRAM     4     3      1
            _GPIO_PIN_Direction_Init
                      _GPIO_PIN_Init
 ---------------------------------------------------------------------------------
 (2) _GPIO_PIN_Init                                        3     2      1    6770
                                              9 COMRAM     3     2      1
            _GPIO_PIN_Direction_Init
               _GPIO_PIN_Write_Logic
 ---------------------------------------------------------------------------------
 (3) _GPIO_PIN_Direction_Init                              7     6      1     559
                                              1 COMRAM     7     6      1
 ---------------------------------------------------------------------------------
 (1) _Get_Second_Number                                    3     3      0  113128
                                             46 COMRAM     2     2      0
                   _Get_First_Number
                  _KEYPAD_Get_Number
                _LCD_8BITS_Send_Char
             _LCD_8BITS_Send_Command
              _LCD_8BITS_Send_Number
              _LCD_8BITS_Send_String
 ---------------------------------------------------------------------------------
 (2) _Get_First_Number                                     3     3      0   56565
                                             44 COMRAM     2     2      0
                  _KEYPAD_Get_Number
                _LCD_8BITS_Send_Char
             _LCD_8BITS_Send_Command
              _LCD_8BITS_Send_Number
              _LCD_8BITS_Send_String
 ---------------------------------------------------------------------------------
 (2) _LCD_8BITS_Send_Number                               23    18      5   14140
                                             21 COMRAM    23    18      5
              _LCD_8BITS_Send_String
                            ___lldiv
                            ___llmod
 ---------------------------------------------------------------------------------
 (3) ___llmod                                              9     1      8     463
                                              1 COMRAM     9     1      8
 ---------------------------------------------------------------------------------
 (3) ___lldiv                                             13     5      8     770
                                              1 COMRAM    13     5      8
 ---------------------------------------------------------------------------------
 (2) _LCD_8BITS_Send_String                                4     1      3   12061
                                             17 COMRAM     4     1      3
                _LCD_8BITS_Send_Char
 ---------------------------------------------------------------------------------
 (3) _LCD_8BITS_Send_Char                                  6     4      2   11339
                                             11 COMRAM     6     4      2
               _GPIO_PIN_Write_Logic
              _LCD_8BITS_Send_ENABLE
 ---------------------------------------------------------------------------------
 (2) _LCD_8BITS_Send_Command                               6     4      2   12859
                                             11 COMRAM     6     4      2
               _GPIO_PIN_Write_Logic
              _LCD_8BITS_Send_ENABLE
 ---------------------------------------------------------------------------------
 (3) _LCD_8BITS_Send_ENABLE                                2     1      1    5134
                                              9 COMRAM     2     1      1
               _GPIO_PIN_Write_Logic
 ---------------------------------------------------------------------------------
 (2) _KEYPAD_Get_Number                                    8     6      2    6156
                                              9 COMRAM     8     6      2
                _GPIO_PIN_Read_Logic
               _GPIO_PIN_Write_Logic
 ---------------------------------------------------------------------------------
 (4) _GPIO_PIN_Write_Logic                                 8     6      2    4913
                                              1 COMRAM     8     6      2
 ---------------------------------------------------------------------------------
 (3) _GPIO_PIN_Read_Logic                                  7     5      2     482
                                              1 COMRAM     7     5      2
 ---------------------------------------------------------------------------------
 Estimated maximum stack depth 4
 ---------------------------------------------------------------------------------
 (Depth) Function   	        Calls       Base Space   Used Autos Params    Refs
 ---------------------------------------------------------------------------------
 (8) _InterruptManager                                     0     0      0     120
                           _INT0_ISR
                           _INT1_ISR
                           _INT2_ISR
                            _RB4_ISR
                            _RB5_ISR
                            _RB6_ISR
                            _RB7_ISR
 ---------------------------------------------------------------------------------
 (9) _RB7_ISR                                              1     1      0      30
                                              0 COMRAM     1     1      0
 ---------------------------------------------------------------------------------
 (9) _RB6_ISR                                              1     1      0      30
                                              0 COMRAM     1     1      0
 ---------------------------------------------------------------------------------
 (9) _RB5_ISR                                              1     1      0      30
                                              0 COMRAM     1     1      0
 ---------------------------------------------------------------------------------
 (9) _RB4_ISR                                              1     1      0      30
                                              0 COMRAM     1     1      0
 ---------------------------------------------------------------------------------
 (9) _INT2_ISR                                             0     0      0       0
 ---------------------------------------------------------------------------------
 (9) _INT1_ISR                                             0     0      0       0
 ---------------------------------------------------------------------------------
 (9) _INT0_ISR                                             0     0      0       0
 ---------------------------------------------------------------------------------
 Estimated maximum stack depth 9
 ---------------------------------------------------------------------------------

 Call Graph Graphs:

 _main (ROOT)
   _Get_First_Number
     _KEYPAD_Get_Number
       _GPIO_PIN_Read_Logic
       _GPIO_PIN_Write_Logic
     _LCD_8BITS_Send_Char
       _GPIO_PIN_Write_Logic
       _LCD_8BITS_Send_ENABLE
         _GPIO_PIN_Write_Logic
     _LCD_8BITS_Send_Command
       _GPIO_PIN_Write_Logic
       _LCD_8BITS_Send_ENABLE
     _LCD_8BITS_Send_Number
       _LCD_8BITS_Send_String
         _LCD_8BITS_Send_Char
       ___lldiv
       ___llmod
     _LCD_8BITS_Send_String
   _Get_Second_Number
     _Get_First_Number
     _KEYPAD_Get_Number
     _LCD_8BITS_Send_Char
     _LCD_8BITS_Send_Command
     _LCD_8BITS_Send_Number
     _LCD_8BITS_Send_String
   _KEYPAD_Init
     _GPIO_PIN_Direction_Init
     _GPIO_PIN_Init
       _GPIO_PIN_Direction_Init
       _GPIO_PIN_Write_Logic
   _LCD_8BITS_Init
     _GPIO_PIN_Init
     _LCD_4BITS_Send_Command
       _GPIO_PIN_Write_Logic
       _LCD_4BITS_Send_Data
         _GPIO_PIN_Write_Logic
       _LCD_4BITS_Send_ENABLE
         _GPIO_PIN_Write_Logic
     _LCD_8BITS_Send_Command

 _InterruptManager (ROOT)
   _INT0_ISR
   _INT1_ISR
   _INT2_ISR
   _RB4_ISR
   _RB5_ISR
   _RB6_ISR
   _RB7_ISR

 Address spaces:
Name               Size   Autos  Total    Cost      Usage
BIGRAM             F7F      0       0      43        0.0%
EEDATA             400      0       0       0        0.0%
BITBANK14          100      0       0      32        0.0%
BANK14             100      0       0      33        0.0%
BITBANK13          100      0       0      30        0.0%
BANK13             100      0       0      31        0.0%
BITBANK12          100      0       0      28        0.0%
BANK12             100      0       0      29        0.0%
BITBANK11          100      0       0      26        0.0%
BANK11             100      0       0      27        0.0%
BITBANK10          100      0       0      24        0.0%
BANK10             100      0       0      25        0.0%
BITBANK9           100      0       0      22        0.0%
BANK9              100      0       0      23        0.0%
BITBANK8           100      0       0      20        0.0%
BANK8              100      0       0      21        0.0%
BITBANK7           100      0       0      18        0.0%
BANK7              100      0       0      19        0.0%
BITBANK6           100      0       0      16        0.0%
BANK6              100      0       0      17        0.0%
BITBANK5           100      0       0      14        0.0%
BANK5              100      0       0      15        0.0%
BITBANK4           100      0       0      12        0.0%
BANK4              100      0       0      13        0.0%
BITBANK3           100      0       0      10        0.0%
BANK3              100      0       0      11        0.0%
BITBANK2           100      0       0       8        0.0%
BANK2              100      0       0       9        0.0%
BITBANK1           100      0       0       6        0.0%
BANK1              100      0       0       7        0.0%
BITBANK15           80      0       0      34        0.0%
BANK15              80      0       0      35        0.0%
BITBANK0            80      0       0       4        0.0%
BANK0               80      0      18       5       18.8%
BITCOMRAM           7E      0       0       0        0.0%
COMRAM              7E     30      7A       1       96.8%
BITBIGSFRhhll       2B      0       0      37        0.0%
BITBIGSFRllhhh      15      0       0      38        0.0%
BITBIGSFRllhhll      F      0       0      39        0.0%
BITBIGSFRhhh         D      0       0      36        0.0%
BITBIGSFRlllh        4      0       0      40        0.0%
BITBIGSFRllll        4      0       0      41        0.0%
BIGSFR               0      0       0     200        0.0%
BITSFR               0      0       0     200        0.0%
SFR                  0      0       0     200        0.0%
STACK                0      0       0       2        0.0%
NULL                 0      0       0       0        0.0%
ABS                  0      0      92      42        0.0%
DATA                 0      0      92       3        0.0%
CODE                 0      0       0       0        0.0%


Microchip Technology PIC18 Macro Assembler V2.45 build 20230818022343 
Symbol Table                                                                                   Sat Sep 30 19:01:21 2023

                ??_InterruptManager 0002                                  l63 1BBA  
                                l49 20D2               LCD_8BITS_Init@counter 0014  
                               l101 2192                                 l205 19A8  
                               l231 2210                                 l152 1C94  
                               l234 2236                                 l228 21E2  
                               l166 1FF4                                 l159 206A  
                               l179 1F04                                 l547 1ACE  
                               l573 1D54                                 l566 1880  
                               l587 1F7E                                 l937 2272  
                               l938 2272                                 l949 12C6  
                               l968 12D6                                 l988 1754  
          LCD_4BITS_Send_ENABLE@RET 000B                       _GPIO_PIN_Init 1F06  
                               _lcd 0071           _RB5_InterruptHandler_HIGH 003B  
          LCD_4BITS_Send_ENABLE@lcd 000A                                 wreg 0FE8  
                      ?_KEYPAD_Init 000D                     __end_of_RB4_ISR 22E2  
                   __end_of_RB5_ISR 22C8                     __end_of_RB6_ISR 22AE  
                   __end_of_RB7_ISR 2294                                l1025 1DF8  
                              l1018 1DE8                                l1411 1E70  
                              l4001 1566                                l1418 1E80  
                              l4011 15C0                                l4003 1574  
                              l4021 161A                                l4013 15D2  
                              l4005 158C                                l4023 162E  
                              l4015 15E4                                l4007 159C  
                              l4041 1688                                l4033 166A  
                              l4025 1646                                l4009 15AE  
                              l4017 15F6                                l4035 167E  
                              l4027 1652                                l4019 1602  
                              l4043 1690                                l4053 16CE  
                              l4045 16AA                                l4029 1656  
                              l3511 221E                                l4071 1724  
                              l4055 16E2                                l4047 16B6  
                              l4063 16E8                                l4039 1684  
                              l3513 2226                                l3521 1F94  
                              l3601 1E24                                l4073 1742  
                              l4065 1702                                l4049 16BA  
                              l3515 2234                                l3507 2212  
                              l3531 1FAC                                l3523 1F9C  
                              l3603 1E32                                l4067 1716  
                              l4075 1744                                l3611 19AA  
                              l3509 2212                                l3533 1FD6  
                              l3525 1FA8                                l3605 1E50  
                              l3613 19BE                                l3701 21F0  
                              l3551 1CF6                                l3543 1C96  
                              l3711 200A                                l3535 1FD8  
                              l3519 1F80                                l3607 1E60  
                              l3623 1A8C                                l3615 19DE  
                              l3703 21F8                                l3553 1CFE  
                              l3545 1CAA                                l3633 1AD0  
                              l3721 2022                                l3713 2012  
                              l3537 1FE8                                l3561 1E96  
                              l3609 1E6A                                l3801 1024  
                              l3617 19E6                                l3625 1ACC  
                              l3705 2206                                l3555 1D52  
                              l3547 1CBA                                l4611 1868  
                              l3491 17AE                                l3483 1756  
                              l3651 1B10                                l3635 1AEC  
                              l3723 204C                                l3715 201E  
                              l3539 1FF2                                l3563 1E9E  
                              l3811 1074                                l3803 102C  
                              l3619 1A3C                                l3549 1CDA  
                              l3493 17FE                                l3485 176A  
                              l3661 1B4C                                l3653 1B1E  
                              l3645 1B08                                l3637 1AFC  
                              l3725 204E                                l3709 1FF6  
                              l3565 1ECC                                l3581 1D90  
                              l3573 1D56                                l3741 18B6  
                              l3733 1882                                l3821 10D0  
                              l3813 1086                                l3805 103A  
                              l3901 206C                                l3487 178A  
                              l3671 1B72                                l3655 1B20  
                              l3639 1B04                                l3727 205E  
                              l3567 1ED0                                l3559 1E82  
                              l3591 1DD8                                l3583 1D9E  
                              l3575 1D66                                l3751 1966  
                              l3743 18B8                                l3735 1896  
                              l3831 111A                                l3823 10E8  
                              l3815 1098                                l3807 1052  
                              l3911 2090                                l3903 2084  
                              l3497 1854                                l3489 17A6  
                              l3673 1B94                                l3657 1B30  
                              l3681 1BB8                                l3729 2068  
                              l3569 1F02                                l3593 1DE2  
                              l3585 1DA8                                l3577 1D7C  
                              l3753 197A                                l3745 18EC  
                              l3761 19A6                                l3737 189E  
                              l3841 1148                                l3833 1126  
                              l3825 10F4                                l3817 10AA  
                              l3809 1062                                l4609 1AB6  
                              l3913 209A                                l3905 208C  
                              l3499 187E                                l3675 1B96  
                              l3667 1B50                                l3659 1B3E  
                              l3587 1DC6                                l3579 1D84  
                              l3595 1DFA                                l3755 197C  
                              l3747 1902                                l3739 18A2  
                              l3851 117C                                l3835 112A  
                              l3827 10F8                                l3819 10BC  
                              l3771 1F52                                l3923 20B0  
                              l3915 209C                                l3691 21B6  
                              l3677 1BA6                                l3669 1B62  
                              l3589 1DD6                                l3597 1E10  
                              l3757 198E                                l3749 190A  
                              l3861 11C2                                l3853 1184  
                              l3829 1100                                l3773 1F5A  
                              l3765 1F06                                l3925 20BE  
                              l3917 20AC                                l3693 21CA  
                              l3685 2194                                l3781 2148  
                              l3679 1BA8                                l3599 1E18  
                              l3759 1998                                l3871 11E6  
                              l3855 11A2                                l3839 113E  
                              l3847 114E                                l3775 1F7C  
                              l3767 1F16                                l3927 20C0  
                              l3687 2194                                l3783 2150  
                              l3951 1BEC                                l4591 225A  
                              l3881 1226                                l3873 11EA  
                              l3865 11D6                                l3857 11A4  
                              l3849 1168                                l3769 1F36  
                              l3929 20D0                                l3689 21A4  
                              l3697 21E4                                l3785 2190  
                              l3961 1BFE                                l3945 1BBC  
                              l4593 225A                                l3891 1294  
                              l3883 1240                                l3875 11FC  
                              l3867 11E0                                l3859 11BE  
                              l3699 21E4                                l3779 2138  
                              l3971 1C48                                l3963 1C0E  
                              l3947 1BD0                                l4595 2262  
                              l3885 125A                                l3981 1C84  
                              l3973 1C54                                l3965 1C1C  
                              l3957 1BF0                                l3949 1BD8  
                              l4597 226A                                l3895 12A2  
                              l3887 1274                                l3879 120C  
                              l3975 1C60                                l3967 1C28  
                              l3959 1BFC                                l3983 1C92  
                              l4599 226E                                l3897 12C0  
                              l3889 1288                                l3977 1C6C  
                              l3969 1C42                                l3899 12C6  
                              l3979 1C78                                l3999 155E  
                              STR_1 101F                                STR_4 1011  
                              STR_5 1011                                u3000 2084  
                              u3001 2080                                u3010 20AC  
                              u3011 20A8                                u3100 15C0  
                              u3020 20D0                                u3101 15BC  
                              u3021 20CC                                _LATA 0F89  
                              u3110 15D2                                _LATB 0F8A  
                              u3111 15CE                                _LATC 0F8B  
                              u3120 15E4                                u3040 1BD0  
                              _LATD 0F8C                                u3121 15E0  
                              u3041 1BCC                                _LATE 0F8D  
                              u2410 1F94                                u3130 15F6  
                              u3050 1C0E                                u2411 1F90  
                              u3131 15F2                                u3051 1C0A  
                              u2404 181C                                u2500 1EC4  
                              u3140 1666                                u2405 1818  
                              u3141 1662                                u2430 1FE8  
                              u2510 1EF2                                u3150 16AA  
                              u3070 158C                                u2431 1FE4  
                              u3151 16A6                                u3071 1588  
                              u2440 1CAA                                u2360 176A  
                              u2424 1FC6                                u2520 1F02  
                              u3160 16CA                                u3080 159C  
                              u2600 19DE                                u2441 1CA6  
                              u2361 1766                                u2425 1FC2  
                              u2521 1EFE                                u3161 16C6  
                              u3081 1598                                u2601 19DA  
                              u2450 1CBA                                u2370 178A  
                              u2530 1D7C                                u3170 1702  
                              u3090 15AE                                u2451 1CB6  
                              u2371 1786                                u2507 1EBA  
                              u2531 1D78                                u3171 16FE  
                              u3091 15AA                                u2460 1CDA  
                              u2380 17A6                                u2700 1BB8  
                              u2540 1D9E                                u3180 1754  
                              u2461 1CD6                                u2381 17A2  
                              u2701 1BB4                                u2517 1EE8  
                              u2541 1D9A                                u3181 1750  
                              u2470 1CF6                                u2710 200A  
                              u2550 1DC6                                u2630 1AA2  
                              u2614 1A04                                u2471 1CF2  
                              u2711 2006                                u2551 1DC2  
                              u2631 1A9C                                u2615 1A00  
                              u2560 1E10                                u2640 1AA4  
                              u2624 1A5A                                u2800 2148  
                              u2561 1E0C                                u2625 1A56  
                              u2801 2144                                u2394 17CC  
                              u2650 1AEC                                u2730 205E  
                              u2490 1E96                                u2570 1E32  
                              u2395 17C8                                u2651 1AE8  
                              u2731 205A                                u2491 1E92  
                              u2571 1E2E                                u2484 1D46  
                              u2660 1AFC                                u2724 203C  
                              u2580 1E50                                u2740 1896  
                              u2900 113A                                u2820 1052  
                              u2485 1D42                                u2661 1AF8  
                              u2725 2038                                u2581 1E4C  
                              u2741 1892                                u2901 1136  
                              u2821 104E                                u2670 1B30  
                              u2750 1902                                u2910 1168  
                              u2830 1062                                u2590 19BE  
                              u2671 1B2C                                u2751 18FE  
                              u2911 1164                                u2831 105E  
                              u2591 19BA                                u2680 1B72  
                              u2760 198E                                u2920 11BE  
                              u2840 1074                                u2681 1B6E  
                              u2761 198A                                u2921 11BA  
                              u2841 1070                                u2690 1BA6  
                              u2930 11D2                                u2850 1086  
                              u2770 1F16                                u2691 1BA2  
                              u2931 11CE                                u2851 1082  
                              u2771 1F12                                u3707 2208  
                              u2940 11FC                                u2860 1098  
                              u2780 1F36                                u2941 11F8  
                              u2861 1094                                u3717 160C  
                              u2781 1F32                                u2950 1226  
                              u2870 10AA                                u2790 1F52  
                              u2951 1222                                u2871 10A6  
                              u3727 1638                                u2791 1F4E  
                              u2960 1240                                u2880 10BC  
                              u2961 123C                                u3737 10DA  
                              u2881 10B8                                u2970 125A  
                              u2890 111A                                u3747 2220  
                              u2971 1256                                u2891 1116  
                              u3667 1C14                                u2980 1274  
                              u3757 1B44                                u2981 1270  
                              u3677 1C2E                                u2990 12D6  
                              u2991 12D2                                u3687 1C44  
                              u3697 21F2             GPIO_PIN_Write_Logic@RET 0009  
          _RB4_InterruptHandler_LOW 003D                                _main 225A  
                              _pin1 0052                                _pin2 0051  
          _RB7_InterruptHandler_LOW 0031                                fsr0h 0FEA  
                              fsr1h 0FE2                                indf0 0FEF  
                              fsr2h 0FDA                                fsr0l 0FE9  
                              indf1 0FE7                                indf2 0FDF  
                              fsr1l 0FE1                                fsr2l 0FD9  
                              btemp 007B                                prodl 0FF3  
            LCD_4BITS_Send_Data@RET 000C                                start 000E  
            LCD_4BITS_Send_Data@lcd 000A              _LCD_8BITS_Send_Command 1FF6  
                      ___param_bank 0000                    __end_of_INT0_ISR 2300  
                  __end_of_INT1_ISR 22FC                    __end_of_INT2_ISR 22F8  
                             ?_main 0001                      ?_GPIO_PIN_Init 000A  
                             _EEADR 0FA9                     __end_of___lldiv 1DFA  
                   __end_of___llmod 1E82                               i2l700 22E0  
                             i2l721 2292                               i2l714 22AC  
                             i2l707 22C6                               i2l900 155A  
                             i2l675 22FE                               i2l683 22F6  
                             i2l679 22FA                               i2l881 131A  
                             i2l891 144A                               i2l883 133A  
                             i2l893 148E                               i2l885 137E  
                             i2l895 14D2                               i2l887 13C2  
                             i2l879 12FA                               i2l897 1516  
                             i2l889 1406                               _PORTA 0F80  
                             _PORTB 0F81                               _PORTC 0F82  
                             _PORTD 0F83                               _PORTE 0F84  
                             _TRISA 0F92                               _TRISB 0F93  
                             _TRISC 0F94                               _TRISD 0F95  
                             _TRISE 0F96                               _count 0048  
                             tablat 0FF5                   RELAY_Toggle@F2752 0049  
           KEYPAD_Get_Number@keypad 000A                               ttemp5 007C  
                             ttemp6 007F                               ttemp7 0083  
                             status 0FD8                               wtemp8 007C  
           KEYPAD_Get_Number@number 000B                        RB4_ISR@level 0001  
                   __initialization 20D4                        __end_of_main 227A  
GPIO_PIN_Direction_Init@_pin_config 0002                        RB5_ISR@level 0001  
                            ??_main 0031            __end_of_Get_First_Number 12D8  
                     __activetblptr 0003                           ??_RB4_ISR 0001  
                         ??_RB5_ISR 0001                           ??_RB6_ISR 0001  
                         ??_RB7_ISR 0001            ??_LCD_4BITS_Send_Command 000F  
                      RB6_ISR@level 0001          LCD_4BITS_Send_Data@command 000B  
      __end_of_GPIO_PIN_Write_Logic 1882                 RELAY_Turn_OFF@F2747 004A  
     __end_of_LCD_8BITS_Send_ENABLE 2238                    ___llmod@dividend 0002  
                            _ADRESH 0FC4                              _EEADRH 0FAA  
                            _ADRESL 0FC3                              _EEDATA 0FA8  
                            _EECON2 0FA7                              i2l2243 22F8  
                            i2l2251 22CA                              i2l2253 22CC  
                            i2l2261 22B0                              i2l2239 22FC  
                            i2l2247 22F4                              i2l2263 22B2  
                            i2l2271 2296                              i2l2257 22E0  
                            i2l2273 2298                              i2l2281 227C  
                            i2l3401 13B8                              i2l2267 22C6  
                            i2l2283 227E                              i2l3411 13FC  
                            i2l3403 13BC                              i2l2277 22AC  
                            i2l3421 1440                              i2l3413 1400  
                            i2l3405 13D0                              i2l2287 2292  
                            i2l3431 1484                              i2l3423 1444  
                            i2l3415 1414                              i2l3407 13DE  
                            i2l3441 14C8                              i2l3433 1488  
                            i2l3425 1458                              i2l3417 1422  
                            i2l3409 13EC                              i2l3451 150C  
                            i2l3443 14CC                              i2l3435 149C  
                            i2l3427 1466                              i2l3419 1430  
                            i2l3371 12DA                              i2l3461 1550  
                            i2l3453 1510                              i2l3445 14E0  
                            i2l3437 14AA                              i2l3429 1474  
                            i2l3381 1328                              i2l3373 12E8  
                            i2l3463 1554                              i2l3455 1524  
                            i2l3447 14EE                              i2l3439 14B8  
                            i2l3391 1374                              i2l3383 1336  
                            i2l3375 12F6                              i2l3457 1532  
                            i2l3449 14FC                              i2l3393 1378  
                            i2l3385 1348                              i2l3377 1308  
                            i2l3459 1540                              i2l3395 138C  
                            i2l3387 1356                              i2l3379 1316  
                            i2l3397 139A                              i2l3389 1364  
                            i2l3399 13A8               _LCD_4BITS_Send_ENABLE 21E4  
                      RB7_ISR@level 0001                   _KEYPAD_Get_Number 1AD0  
     __end_of_LCD_8BITS_Send_Number 19AA                  ?_KEYPAD_Get_Number 000A  
     __end_of_LCD_8BITS_Send_String 1F06                           ??___lldiv 000A  
                         ??___llmod 000A           LCD_4BITS_Send_Command@RET 000F  
                   ??_GPIO_PIN_Init 000B         __end_of_LCD_4BITS_Send_Data 21E4  
                            _keypad 008A                              clear_0 2128  
         LCD_4BITS_Send_Command@lcd 000D                 ??_KEYPAD_Get_Number 000C  
                            isa$std 0001                        __pdataCOMRAM 0059  
                      __mediumconst 0000            KEYPAD_Get_Number@counter 000F  
                            tblptrh 0FF7                              tblptrl 0FF6  
                            tblptru 0FF8        KEYPAD_Get_Number@row_counter 0010  
                 LCD_8BITS_Init@RET 0015           __end_of_KEYPAD_Get_Number 1BBC  
                        __accesstop 0080                   LCD_8BITS_Init@lcd 0012  
           __end_of__initialization 212E                           ?_INT0_ISR 0001  
                         ?_INT1_ISR 0001                           ?_INT2_ISR 0001  
                  LED_Turn_On@F2742 004F                       ___rparam_used 0001  
          ?_GPIO_PIN_Direction_Init 0002                      __pcstackCOMRAM 0001  
                      __pidataBANK0 22E2                   _Get_Second_Number 155E  
                ?_Get_Second_Number 0001         __end_of_LCD_8BITS_Send_Char 1FF6  
               ??_Get_Second_Number 002F              ?_LCD_4BITS_Send_ENABLE 000A  
                        __pbssBANK0 0092               _INT0_InterruptHandler 0045  
                        ??_INT0_ISR 0001                          ??_INT1_ISR 0001  
                        ??_INT2_ISR 0001             ?_LCD_8BITS_Send_Command 000C  
         KEYPAD_Init@column_counter 0010           __end_of_Get_Second_Number 1756  
              _GPIO_PIN_Write_Logic 1756       LCD_8BITS_Send_Command@command 000D  
     LCD_8BITS_Send_Command@counter 0011            LCD_8BITS_Send_ENABLE@RET 000B  
                           _RB4_ISR 22C8                             _RB5_ISR 22AE  
                           _RB6_ISR 2294                             _RB7_ISR 227A  
                           _LAT_REG 0059           _RB6_InterruptHandler_HIGH 0037  
          LCD_8BITS_Send_ENABLE@lcd 000A                             i2u80_40 22A8  
                           i2u80_41 22A4                             i2u81_40 228E  
                           i2u81_41 228A                             i2u78_40 22DC  
                           i2u78_41 22D8                       LED_Init@F2737 0050  
                           i2u79_40 22C2                             i2u79_41 22BE  
   __end_of_GPIO_PIN_Direction_Init 1AD0      __end_of_LCD_8BITS_Send_Command 206C  
          _RB6_InterruptHandler_LOW 0035              LCD_8BITS_Send_Char@RET 0010  
            LCD_8BITS_Send_Char@lcd 000C                             __Hparam 0000  
                           __Lparam 0000              _LCD_4BITS_Send_Command 2138  
             ?_GPIO_PIN_Write_Logic 0002                             ___lldiv 1D56  
                           ___llmod 1DFA                        __psmallconst 1000  
       LCD_8BITS_Send_Number@number 0017                             __pcinit 20D4  
                           __ramtop 1000                             __ptext0 225A  
                           __ptext1 1BBC                             __ptext2 2138  
                           __ptext3 21E4                             __ptext4 2194  
                           __ptext5 206C                             __ptext6 1F06  
                           __ptext7 19AA                             __ptext8 155E  
                           __ptext9 1024                   ?_Get_First_Number 0001  
                ??_Get_First_Number 002D              LCD_8BITS_Send_Number@i 002B  
            LCD_8BITS_Send_Number@n 0027                      __pintcode_body 12D8  
              end_of_initialization 212E                          _second_num 0053  
                           int_func 12D8                     ___lldiv@divisor 0006  
                   ___lldiv@counter 000E                             postdec1 0FE5  
                           postdec2 0FDD                             postinc0 0FEE  
                           postinc1 0FE6                             postinc2 0FDE  
          GPIO_PIN_Init@_pin_config 000A               _INT1_InterruptHandler 0043  
                         _PORTBbits 0F81                    _InterruptManager 0008  
        LCD_8BITS_Send_Char@counter 0011               _LCD_8BITS_Send_ENABLE 2212  
            ??_GPIO_PIN_Write_Logic 0004                   LED_Turn_Off@F2747 004E  
               _GPIO_PIN_Read_Logic 1C96     GPIO_PIN_Read_Logic@logic_status 0003  
                  GPIO_PIN_Init@RET 000C               _LCD_8BITS_Send_Number 1882  
             _LCD_8BITS_Send_String 1E82                       __pidataCOMRAM 2238  
             __end_of_GPIO_PIN_Init 1F80                      _LCD_8BITS_Init 1BBC  
            KEYPAD_Get_Number@logic 000E                 start_initialization 20D4  
           ??_LCD_4BITS_Send_ENABLE 000B                       ??_KEYPAD_Init 000E  
              ?_GPIO_PIN_Read_Logic 0002                     ___llmod@divisor 0006  
                   ___llmod@counter 000A                  RELAY_Turn_ON@F2742 004B  
            KEYPAD_Init@row_counter 000F                         __pdataBANK0 0080  
            __end_of_LCD_8BITS_Init 1C96       LCD_4BITS_Send_Command@command 000E  
                          ?_RB4_ISR 0001                            ?_RB5_ISR 0001  
                          ?_RB6_ISR 0001                            ?_RB7_ISR 0001  
                       __pbssCOMRAM 0031               ??_GPIO_PIN_Read_Logic 0004  
              KEYPAD_Get_Number@RET 000D          GPIO_PIN_Direction_Init@RET 0008  
            ?_LCD_8BITS_Send_ENABLE 000A                 __end_of_KEYPAD_Init 20D4  
             _INT2_InterruptHandler 0041             ?_LCD_4BITS_Send_Command 000D  
            ?_LCD_8BITS_Send_Number 0016                           __pintcode 0008  
            ?_LCD_8BITS_Send_String 0012                            ?___lldiv 0002  
                          ?___llmod 0002     KEYPAD_Get_Number@column_counter 0011  
                   ?_LCD_8BITS_Init 0012                         __smallconst 1000  
         _RB4_InterruptHandler_HIGH 003F                     _Keypad_Elements 1001  
                         _first_num 0056           _RB7_InterruptHandler_HIGH 0033  
    __end_of_LCD_4BITS_Send_Command 2194            _RB5_InterruptHandler_LOW 0039  
                          _INT0_ISR 22FC                            _INT1_ISR 22F8  
                          _INT2_ISR 22F4            __end_of_InterruptManager 155E  
                          _RB4_flag 0070                            _RB5_flag 006F  
                          _RB6_flag 006E                            _RB7_flag 006D  
                          i2u200_40 1308                            i2u200_41 1304  
                          i2u201_40 1316                            i2u201_41 1312  
                          i2u210_40 13A8                            i2u202_40 1328  
                          i2u210_41 13A4                            i2u202_41 1324  
                          i2u211_40 13B8                            i2u203_40 1336  
                          i2u211_41 13B4                            i2u203_41 1332  
                          i2u220_40 1458                            i2u212_40 13D0  
                          i2u204_40 1348                            i2u220_41 1454  
                          i2u212_41 13CC                            i2u204_41 1344  
                          i2u221_40 1466                            i2u213_40 13DE  
                          i2u205_40 1356                            i2u221_41 1462  
                          i2u213_41 13DA                            i2u205_41 1352  
                          i2u230_40 14FC                            i2u222_40 1474  
                          i2u214_40 13EC                            i2u206_40 1364  
                          i2u230_41 14F8                            i2u222_41 1470  
                          i2u214_41 13E8                            i2u206_41 1360  
                          i2u231_40 150C                            i2u223_40 1484  
                          i2u215_40 13FC                            i2u207_40 1374  
                          i2u231_41 1508                            i2u223_41 1480  
                          i2u215_41 13F8                            i2u207_41 1370  
                          i2u232_40 1524                            i2u224_40 149C  
                          i2u216_40 1414                            i2u208_40 138C  
                          i2u232_41 1520                            i2u224_41 1498  
                          i2u216_41 1410                            i2u208_41 1388  
                          i2u233_40 1532                            i2u225_40 14AA  
                          i2u217_40 1422                            i2u209_40 139A  
                          i2u233_41 152E                            i2u225_41 14A6  
                          i2u217_41 141E                            i2u209_41 1396  
                          i2u234_40 1540                            i2u226_40 14B8  
                          i2u218_40 1430                            i2u234_41 153C  
                          i2u226_41 14B4                            i2u218_41 142C  
                          i2u235_40 1550                            i2u227_40 14C8  
                          i2u219_40 1440                            i2u235_41 154C  
                          i2u227_41 14C4                            i2u219_41 143C  
                          i2u228_40 14E0                            i2u228_41 14DC  
                          i2u229_40 14EE                            i2u229_41 14EA  
                          i2u198_40 12E8                            i2u198_41 12E4  
                          i2u199_40 12F6                            i2u199_41 12F2  
                          _PORT_REG 0080             _GPIO_PIN_Direction_Init 19AA  
                          _TRIS_REG 0063                          _ADCON0bits 0FC2  
          LCD_8BITS_Send_Number@RET 0026                          _ADCON1bits 0FC1  
                        _ADCON2bits 0FC0            LCD_8BITS_Send_Number@lcd 0016  
          LCD_8BITS_Send_Number@len 002C            LCD_8BITS_Send_Number@rem 0025  
          LCD_8BITS_Send_Number@str 001B                         _KEYPAD_Init 206C  
                       _INTCON2bits 0FF1                         _INTCON3bits 0FF0  
                         copy_data0 20E8                           copy_data1 2108  
    GPIO_PIN_Read_Logic@_pin_config 0002     GPIO_PIN_Write_Logic@_pin_config 0002  
           LCD_8BITS_Send_Char@data 000D                          _EECON1bits 0FA6  
                 KEYPAD_Init@keypad 000D                            __Hrparam 0000  
               _LCD_4BITS_Send_Data 2194                            __Lrparam 0000  
          LCD_8BITS_Send_String@RET 0015             __end_of_Keypad_Elements 1011  
          LCD_8BITS_Send_String@lcd 0012                ?_LCD_4BITS_Send_Data 000A  
          ??_LCD_8BITS_Send_Command 000E                            __ptext10 1882  
                          __ptext11 1DFA                            __ptext12 1D56  
                          __ptext21 227A                            __ptext13 1E82  
                          __ptext22 2294                            __ptext14 1F80  
                          __ptext23 22AE                            __ptext15 1FF6  
                          __ptext24 22C8                            __ptext16 2212  
                          __ptext25 22F4                            __ptext17 1AD0  
                          __ptext26 22F8                            __ptext18 1756  
                          __ptext27 22FC                            __ptext19 1C96  
     __end_of_LCD_4BITS_Send_ENABLE 2212        Convert_Short_To_String@F3236 0092  
                    KEYPAD_Init@RET 000E              GPIO_PIN_Read_Logic@RET 0008  
                          _operator 0047                            isa$xinst 0000  
         ??_GPIO_PIN_Direction_Init 0003                            int$flags 007B  
       LCD_8BITS_Send_String@string 0013                 _LCD_8BITS_Send_Char 1F80  
         LCD_8BITS_Send_Command@RET 0010           LCD_8BITS_Send_Command@lcd 000C  
                        _INTCONbits 0FF2               ??_LCD_4BITS_Send_Data 000C  
           ??_LCD_8BITS_Send_ENABLE 000B                            intlevel2 0000  
              ?_LCD_8BITS_Send_Char 000C                     RELAY_Init@F2737 004C  
                  ___lldiv@dividend 0002                    _Get_First_Number 1024  
           ??_LCD_8BITS_Send_Number 001B             ??_LCD_8BITS_Send_String 0015  
                   LED_Toggle@F2752 004D                    ??_LCD_8BITS_Init 0013  
       __end_of_GPIO_PIN_Read_Logic 1D56                    ___lldiv@quotient 000A  
  GPIO_PIN_Write_Logic@logic_status 0003               ??_LCD_8BITS_Send_Char 000E  
                 ?_InterruptManager 0001  
